(lp0
(iarticle
Article
p1
(dp2
S'date_time'
p3
cdatetime
datetime
p4
(S'\x07\xe1\x04\x14\x08-\x00\x00\x00\x00'
p5
tp6
Rp7
sS'description'
p8
VA little self-plumbing on the southern continent.
p9
sS'title'
p10
VAntarctica's Rivers May Slow Down Its Collapse
p11
sS'img_link'
p12
Vhttp://pop.h-cdn.co/assets/16/12/480x240/landscape-1458579442-antarctica-sunset.jpg
p13
sS'popularity'
p14
F12.046187190786222
sS'label'
p15
VEarth
p16
sS'website_name'
p17
VPopularMechanics
p18
sS'link'
p19
Vhttps://www.popularmechanics.com/science/environment/a26152/antarcticas-rivers-may-slow-down-its-collapse/
p20
sS'time_published'
p21
VApr 20, 2017
p22
sba(iarticle
Article
p23
(dp24
g3
g4
(S'\x07\xe1\x04\x13\x0e"\x00\x00\x00\x00'
p25
tp26
Rp27
sg8
VThis new, big, dense planet is rocky, like Earth, and has the...
p28
sg10
VNearby Rocky Planet Is Our Newest Hope for Aliens
p29
sg12
Vhttp://pop.h-cdn.co/assets/17/16/480x240/landscape-1492626539-image001-lime.jpg
p30
sg14
F18.8728077868866
sg15
VScience
p31
sg17
g18
sg19
Vhttps://www.popularmechanics.com/science/news/a26149/lhs-1140b-discovery/
p32
sg21
VApr 19, 2017
p33
sba(iarticle
Article
p34
(dp35
g3
g4
(S'\x07\xe1\x04\x13\r5\x00\x00\x00\x00'
p36
tp37
Rp38
sg8
VOnce it is ready, it will capture images of structures and...
p39
sg10
VScientists One Step Closer to Giant X-Ray Laser
p40
sg12
Vhttp://pop.h-cdn.co/assets/17/16/480x240/landscape-1492624256-germany-giant-x-ray-lime.jpg
p41
sg14
F397.0992321303704
sg15
VScience
p42
sg17
g18
sg19
Vhttps://www.popularmechanics.com/science/news/a26146/worlds-largest-x-ray-laser-almost-ready/
p43
sg21
VApr 19, 2017
p44
sba(iarticle
Article
p45
(dp46
g3
g4
(S'\x07\xe1\x04\x12\x12\x14\x00\x00\x00\x00'
p47
tp48
Rp49
sg8
VThey can start there and spread out.
p50
sg10
VDeadly Tornadoes Don't Only Occur in Tornado Alley
p51
sg12
Vhttp://pop.h-cdn.co/assets/15/20/480x240/landscape-1431698819-tornado-open.jpg
p52
sg14
Nsg15
VEarth
p53
sg17
g18
sg19
Vhttps://www.popularmechanics.com/science/environment/a26138/deadly-tornadoes-outside-tornado-alley/
p54
sg21
VApr 18, 2017
p55
sba(iarticle
Article
p56
(dp57
g3
g4
(S'\x07\xe1\x04\x12\x10\x1f\x00\x00\x00\x00'
p58
tp59
Rp60
sg8
VIt's not just sea levels that are changing.
p61
sg10
VA River in Canada Just Started Flowing the Wrong Direction
p62
sg12
Vhttp://pop.h-cdn.co/assets/17/16/768x384/landscape-1492545980-kaskawulshriver-jimbest.jpg
p63
sg14
F271.7486744126921
sg15
VEarth
p64
sg17
g18
sg19
Vhttps://www.popularmechanics.com/science/environment/a26136/global-warming-caused-river-piracy-in-canada/
p65
sg21
VApr 18, 2017
p66
sba(iarticle
Article
p67
(dp68
g3
g4
(S'\x07\xe1\x04\x12\r1\x00\x00\x00\x00'
p69
tp70
Rp71
sg8
VAlthough it tracks where we walk, GPS's greatest benefit could be what it sees under our feet.
p72
sg10
VHow GPS Changed the Way We Think About Our Planet
p73
sg12
Vhttp://pop.h-cdn.co/assets/17/16/640x320/landscape-1492528678-4637h.jpg
p74
sg14
F50.34952166011926
sg15
VEarth
p75
sg17
g18
sg19
Vhttps://www.popularmechanics.com/science/environment/a26121/gps-earth-science/
p76
sg21
VApr 18, 2017
p77
sba(iarticle
Article
p78
(dp79
g3
g4
(S'\x07\xe1\x04\x12\x0c\x00\x00\x00\x00\x00'
p80
tp81
Rp82
sg8
VHypnotic, microscopic, & really freakin' cool.
p83
sg10
VHold a Bioluminescent Ecosystem in the Palm of Your Hand
p84
sg12
V//pop.h-cdn.co/assets/popularmechanics/20170411174720/images/blank.png
p85
sg14
Nsg15
VScience
p86
sg17
g18
sg19
Vhttps://www.popularmechanics.com/science/a26068/dino-sphere/
p87
sg21
VApr 18, 2017
p88
sba(iarticle
Article
p89
(dp90
g3
g4
(S'\x07\xe1\x04\x11\x0f\x05\x00\x00\x00\x00'
p91
tp92
Rp93
sg8
VSelf-taught computer algorithms could save thousands of lives and improve our understanding of how our bodies work.
p94
sg10
VAI Beats Doctors at Predicting Heart Attacks
p95
sg12
V//pop.h-cdn.co/assets/popularmechanics/20170411174720/images/blank.png
p96
sg14
F6.757290911435269
sg15
VHealth
p97
sg17
g18
sg19
Vhttps://www.popularmechanics.com/science/health/a26117/ai-beats-doctors-at-predicting-heart-attacks/
p98
sg21
VApr 17, 2017
p99
sba(iarticle
Article
p100
(dp101
g3
g4
(S'\x07\xe1\x04\x0e\x0e7\x00\x00\x00\x00'
p102
tp103
Rp104
sg8
VDifficulty level: Moderate
p105
sg10
VSolution to Riddle of the Week #24: The Bicycle Problem
p106
sg12
V//pop.h-cdn.co/assets/popularmechanics/20170411174720/images/blank.png
p107
sg14
Nsg15
VMath
p108
sg17
g18
sg19
Vhttps://www.popularmechanics.com/science/math/a26077/solution-to-riddle-of-the-week-24/
p109
sg21
VApr 14, 2017
p110
sba(iarticle
Article
p111
(dp112
g3
g4
(S'\x07\xe1\x04\x0e\x0e3\x00\x00\x00\x00'
p113
tp114
Rp115
sg8
VDifficulty level: Moderate
p116
sg10
VRiddle of the Week #24: The Bicycle Problem
p117
sg12
V//pop.h-cdn.co/assets/popularmechanics/20170411174720/images/blank.png
p118
sg14
F22.980948782547134
sg15
VMath
p119
sg17
g18
sg19
Vhttps://www.popularmechanics.com/science/math/a26070/riddle-of-the-week-24/
p120
sg21
VApr 14, 2017
p121
sba(iarticle
Article
p122
(dp123
g3
g4
(S'\x07\xe1\x04\x0e\r\x1f\x00\x00\x00\x00'
p124
tp125
Rp126
sg8
VIt was made up to sell stuff.
p127
sg10
VHow Horsepower Came to Be
p128
sg12
V//pop.h-cdn.co/assets/popularmechanics/20170411174720/images/blank.png
p129
sg14
F15.689314283623492
sg15
VAnimals
p130
sg17
g18
sg19
Vhttps://www.popularmechanics.com/science/animals/a26074/horsepower-explainer/
p131
sg21
VApr 14, 2017
p132
sba(iarticle
Article
p133
(dp134
g3
g4
(S'\x07\xe1\x04\x0e\x0c\x10\x00\x00\x00\x00'
p135
tp136
Rp137
sg8
VWhen these ants fall in raids on other insects, their fellow colony members carry them back to safety.
p138
sg10
VThis Species of Ants Rescues Wounded Warriors on the Battlefield
p139
sg12
V//pop.h-cdn.co/assets/popularmechanics/20170411174720/images/blank.png
p140
sg14
F38.17092274143386
sg15
VAnimals
p141
sg17
g18
sg19
Vhttps://www.popularmechanics.com/science/animals/a26073/ants-leave-no-wounded-brother-behind/
p142
sg21
VApr 14, 2017
p143
sba(iarticle
Article
p144
(dp145
g3
g4
(S'\x07\xe1\x04\r\n,\x00\x00\x00\x00'
p146
tp147
Rp148
sg8
VDon't get up in horse's business or they'll gallop on your face.
p149
sg10
VHorse Attacks Alligator, Is Either Very Brave or Very Foolish
p150
sg12
V//pop.h-cdn.co/assets/popularmechanics/20170411174720/images/blank.png
p151
sg14
F8.491410668677016
sg15
VAnimals
p152
sg17
g18
sg19
Vhttps://www.popularmechanics.com/science/animals/a26050/horse-alligator-attack/
p153
sg21
VApr 13, 2017
p154
sba(iarticle
Article
p155
(dp156
g3
g4
(S'\x07\xe1\x04\r\x08\x00\x00\x00\x00\x00'
p157
tp158
Rp159
sg8
VHorseshoe Crab blood is an irreplaceable medical marvel, and biomedical companies are bleeding thousands of crabs and throwing them back in...
p160
sg10
VThe Blood of the Crab
p161
sg12
V//pop.h-cdn.co/assets/popularmechanics/20170411174720/images/blank.png
p162
sg14
F2527.964709324571
sg15
VHealth
p163
sg17
g18
sg19
Vhttps://www.popularmechanics.com/science/health/a26038/the-blood-of-the-crab/
p164
sg21
VApr 13, 2017
p165
sba(iarticle
Article
p166
(dp167
g3
g4
(S'\x07\xe1\x04\x0b\x08\x00\x00\x00\x00\x00'
p168
tp169
Rp170
sg8
VIt knocks the propellors clean off.
p171
sg10
VWatching a Lightning Bolt Completely Wreck a Drone
p172
sg12
V//pop.h-cdn.co/assets/popularmechanics/20170411174720/images/blank.png
p173
sg14
Nsg15
VEnergy
p174
sg17
g18
sg19
Vhttps://www.popularmechanics.com/science/energy/a26015/watching-a-lightning-bolt-wreck-a-drone/
p175
sg21
VApr 11, 2017
p176
sba(iarticle
Article
p177
(dp178
g3
g4
(S'\x07\xe1\x04\t\x0c\x03\x00\x00\x00\x00'
p179
tp180
Rp181
sg8
VThe site was once a huge farm.
p182
sg10
VRome Subway Dig Uncovers Ancient Treasures
p183
sg12
Vhttp://pop.h-cdn.co/assets/17/14/768x384/landscape-1491733015-italy-rome-undergroun-mose.jpg
p184
sg14
F11.836532906061816
sg15
VArchaeology
p185
sg17
g18
sg19
Vhttps://www.popularmechanics.com/science/archaeology/a26000/rome-subway-dig/
p186
sg21
VApr 9, 2017
p187
sba(iarticle
Article
p188
(dp189
g3
g4
(S'\x07\xe1\x04\x07\x0f\x14\x00\x00\x00\x00'
p190
tp191
Rp192
sg8
VHint: It is probably big and blue.
p193
sg10
VWhat is On the Exact Opposite Side of the World From You?
p194
sg12
Vhttp://pop.h-cdn.co/assets/17/14/640x320/landscape-1491591553-oppositeside.jpg
p195
sg14
F13.320271308924111
sg15
VEarth
p196
sg17
g18
sg19
Vhttps://www.popularmechanics.com/science/environment/a25994/opposite-side-of-the-world/
p197
sg21
VApr 7, 2017
p198
sba(iarticle
Article
p199
(dp200
g3
g4
(S'\x07\xe1\x04\x07\x0c\x1f\x00\x00\x00\x00'
p201
tp202
Rp203
sg8
VTurbulence could increase dramatically thanks to more CO2 in the air.
p204
sg10
VWhy Turbulence May Soon Get Much, Much Worse
p205
sg12
Vhttp://pop.h-cdn.co/assets/17/14/640x320/landscape-1491578793-flight-sky-clouds-fly-1.jpg
p206
sg14
F5.390658598306952
sg15
VScience
p207
sg17
g18
sg19
Vhttps://www.popularmechanics.com/science/a25987/climate-change-turbulence/
p208
sg21
VApr 7, 2017
p209
sba(iarticle
Article
p210
(dp211
g3
g4
(S'\x07\xe1\x04\x06\x11\x03\x00\x00\x00\x00'
p212
tp213
Rp214
sg8
VSomewhere between 15 and 45 million years old, give or take a million years or so.
p215
sg10
VOldest Mammalian Blood Cells Found in Tick Stuck in Amber
p216
sg12
Vhttp://pop.h-cdn.co/assets/17/14/1491509893-screen-shot-2017-04-06-at-41759-pm.png
p217
sg14
F6.099932999578511
sg15
VAnimals
p218
sg17
g18
sg19
Vhttps://www.popularmechanics.com/science/animals/a25977/oldest-mammalian-blood/
p219
sg21
VApr 6, 2017
p220
sba(iarticle
Article
p221
(dp222
g3
g4
(S'\x07\xe1\x04\x06\x0e\t\x00\x00\x00\x00'
p223
tp224
Rp225
sg8
VDifficulty level: Moderate
p226
sg10
VSolution to Riddle of the Week #23: Escape the Contaminated Lab
p227
sg12
Vhttp://pop.h-cdn.co/assets/17/14/640x320/landscape-1491497942-virus-index.jpg
p228
sg14
Nsg15
VMath
p229
sg17
g18
sg19
Vhttps://www.popularmechanics.com/science/math/a25973/solution-to-riddle-of-the-week-23/
p230
sg21
VApr 6, 2017
p231
sba(iarticle
Article
p232
(dp233
g3
g4
(S'\x07\xe1\x04\x06\x0e\x08\x00\x00\x00\x00'
p234
tp235
Rp236
sg8
VDifficulty level: Moderate
p237
sg10
VRiddle of the Week #23: Escape the Contaminated Lab
p238
sg12
Vhttp://pop.h-cdn.co/assets/17/14/640x320/landscape-1491497942-virus-index.jpg
p239
sg14
F4.056880992410869
sg15
VMath
p240
sg17
g18
sg19
Vhttps://www.popularmechanics.com/science/math/a25972/riddle-of-the-week-23/
p241
sg21
VApr 6, 2017
p242
sba(iarticle
Article
p243
(dp244
g3
g4
(S'\x07\xe1\x04\x04\x0e\x04\x00\x00\x00\x00'
p245
tp246
Rp247
sg8
VIt's no surprise\u2014just look around Las Vegas.
p248
sg10
VThis Is the World's Favorite Number
p249
sg12
Vhttp://pop.h-cdn.co/assets/17/14/640x320/landscape-1491329272-gettyimages-82360012.jpg
p250
sg14
F1.9440619669751973
sg15
VMath
p251
sg17
g18
sg19
Vhttps://www.popularmechanics.com/science/math/a25944/favorite-number/
p252
sg21
VApr 4, 2017
p253
sba(iarticle
Article
p254
(dp255
g3
g4
(S'\x07\xe1\x04\x03\x11\x07\x00\x00\x00\x00'
p256
tp257
Rp258
sg8
VThe new startup Apollo Fusion promises to provide clean, safe nuclear power for a fraction of the cost of traditional nuclear reactors.
p259
sg10
VCan a Googler's Fusion Startup Kickstart Nuclear Power?
p260
sg12
Vhttp://pop.h-cdn.co/assets/16/50/640x320/landscape-1481583839-gettyimages-129268875.jpg
p261
sg14
F19.64844759572369
sg15
VEnergy
p262
sg17
g18
sg19
Vhttps://www.popularmechanics.com/science/energy/a25922/apollo-fusion-startup-googler-nuclear-power/
p263
sg21
VApr 3, 2017
p264
sba(iarticle
Article
p265
(dp266
g3
g4
(S'\x07\xe1\x04\x03\x0e\x0f\x00\x00\x00\x00'
p267
tp268
Rp269
sg8
VStash your important documents in case of apocalypse.
p270
sg10
VNow There's an Armageddon-Proof Library to Go With Norway's Doomsday Seed Bank
p271
sg12
Vhttp://pop.h-cdn.co/assets/17/14/640x320/landscape-1491242609-gettyimages-551798425.jpg
p272
sg14
F15.581521858421096
sg15
VEarth
p273
sg17
g18
sg19
Vhttps://www.popularmechanics.com/science/environment/a25918/norway-data-library/
p274
sg21
VApr 3, 2017
p275
sba(iarticle
Article
p276
(dp277
g3
g4
(S'\x07\xe1\x04\x03\r\r\x00\x00\x00\x00'
p278
tp279
Rp280
sg8
VPeople living near new coal plants could see troubling health effects.
p281
sg10
VOne More Big Reason We Should Be Worried About Bringing Back Coal
p282
sg12
V//pop.h-cdn.co/assets/popularmechanics/20170411174720/images/blank.png
p283
sg14
F15.189217057562734
sg15
VEnergy
p284
sg17
g18
sg19
Vhttps://www.popularmechanics.com/science/energy/a25916/coal-study-nuclear-power-pregnant-women/
p285
sg21
VApr 3, 2017
p286
sba(iarticle
Article
p287
(dp288
g3
g4
(S'\x07\xe1\x04\x03\x08\x1e\x00\x00\x00\x00'
p289
tp290
Rp291
sg8
VIt's thought to be some 3,700 years old.
p292
sg10
VNew Remains of Millennia-Old Pyramid Discovered in Egypt
p293
sg12
V//pop.h-cdn.co/assets/popularmechanics/20170411174720/images/blank.png
p294
sg14
F10.734246411574384
sg15
VArchaeology
p295
sg17
g18
sg19
Vhttps://www.popularmechanics.com/science/archaeology/a25912/remains-of-new-pyramid-discovered-in-egypt/
p296
sg21
VApr 3, 2017
p297
sba(iarticle
Article
p298
(dp299
g3
g4
(S'\x07\xe1\x04\x02\x0c0\x00\x00\x00\x00'
p300
tp301
Rp302
sg8
V"It was amazing," the paralyzed patient said. "I couldn't believe I could do it just by thinking about it."
p303
sg10
VBrain Implant Helps Paralyzed Man Feed Himself Again
p304
sg12
V//pop.h-cdn.co/assets/popularmechanics/20170411174720/images/blank.png
p305
sg14
F13.562976387336136
sg15
VHealth
p306
sg17
g18
sg19
Vhttps://www.popularmechanics.com/science/health/a25911/brain-implant-paralyzed-man/
p307
sg21
VApr 2, 2017
p308
sba(iarticle
Article
p309
(dp310
g3
g4
(S'\x07\xe1\x04\x02\x0c\x08\x00\x00\x00\x00'
p311
tp312
Rp313
sg8
VTwice as many patients who use the device were alive five years later.
p314
sg10
VThis Sci-Fi, Electric Headgear Actually Helps Slow Cancer Growth
p315
sg12
V//pop.h-cdn.co/assets/popularmechanics/20170411174720/images/blank.png
p316
sg14
F3.495402900137045
sg15
VHealth
p317
sg17
g18
sg19
Vhttps://www.popularmechanics.com/science/health/a25910/brain-shocking-cancer/
p318
sg21
VApr 2, 2017
p319
sba(iarticle
Article
p320
(dp321
g3
g4
(S'\x07\xe1\x04\x01\x0e\x1d\x00\x00\x00\x00'
p322
tp323
Rp324
sg8
VThere's actually not much separating matter and antimatter.
p325
sg10
VHow To Make and Trap Antimatter
p326
sg12
V//pop.h-cdn.co/assets/popularmechanics/20170411174720/images/blank.png
p327
sg14
F6.883539355389527
sg15
VScience
p328
sg17
g18
sg19
Vhttps://www.popularmechanics.com/science/a25908/how-to-make-and-trap-antimatter/
p329
sg21
VApr 1, 2017
p330
sba(iarticle
Article
p331
(dp332
g3
g4
(S'\x07\xe1\x03\x1f\x0e \x00\x00\x00\x00'
p333
tp334
Rp335
sg8
VOur brains have an amazing affinity for learning new things. This is what that looks like.
p336
sg10
VLearning to Speak Backwards Shows the Remarkable Power of Our Brains
p337
sg12
Vhttp://pop.h-cdn.co/assets/17/13/640x320/landscape-1490983466-gettyimages-549603029.jpg
p338
sg14
Nsg15
VScience
p339
sg17
g18
sg19
Vhttps://www.popularmechanics.com/science/a25899/how-our-brains-learn/
p340
sg21
VMar 31, 2017
p341
sba(iarticle
Article
p342
(dp343
g3
g4
(S'\x07\xe1\x03\x1f\x0b\x11\x00\x00\x00\x00'
p344
tp345
Rp346
sg8
VThat is, if you forgot to wear any clothes.
p347
sg10
VDo You Lose More Body Heat Walking or Running in the Cold?
p348
sg12
Vhttp://pop.h-cdn.co/assets/17/13/640x320/landscape-1490971897-runwalkcold.jpg
p349
sg14
F1.855623606224071
sg15
VScience
p350
sg17
g18
sg19
Vhttps://www.popularmechanics.com/science/a25893/walking-running-cold/
p351
sg21
VMar 31, 2017
p352
sba(iarticle
Article
p353
(dp354
g3
g4
(S'\x07\xe1\x03\x1e\x0e9\x00\x00\x00\x00'
p355
tp356
Rp357
sg8
VAnd no one's sure why they dug them.
p358
sg10
VThere Are Huge Tunnels in South America Dug By Extinct Giant Sloths
p359
sg12
Vhttp://pop.h-cdn.co/assets/17/13/640x320/landscape-1490898532-pburrow.jpg
p360
sg14
F204.4195273094177
sg15
VEarth
p361
sg17
g18
sg19
Vhttps://www.popularmechanics.com/science/environment/a25880/huge-tunnels-south-america-dug-by-extinct-giants-sloths/
p362
sg21
VMar 30, 2017
p363
sba(iarticle
Article
p364
(dp365
g3
g4
(S'\x07\xe1\x03\x1e\x0b3\x00\x00\x00\x00'
p366
tp367
Rp368
sg8
VDifficulty level: Moderate
p369
sg10
VSolution to Riddle of the Week #22: A Deal With the Devil
p370
sg12
Vhttp://pop.h-cdn.co/assets/17/13/640x320/landscape-1490898094-devil-1.jpg
p371
sg14
Nsg15
VMath
p372
sg17
g18
sg19
Vhttps://www.popularmechanics.com/science/math/a25874/solution-to-riddle-of-the-week-22/
p373
sg21
VMar 30, 2017
p374
sba(iarticle
Article
p375
(dp376
g3
g4
(S'\x07\xe1\x03\x1e\x0b3\x00\x00\x00\x00'
p377
tp378
Rp379
sg8
VDifficulty level: Moderate
p380
sg10
VRiddle of the Week #22: A Deal With the Devil
p381
sg12
Vhttp://pop.h-cdn.co/assets/17/13/640x320/landscape-1490898094-devil-1.jpg
p382
sg14
F1.9483031027060256
sg15
VMath
p383
sg17
g18
sg19
Vhttps://www.popularmechanics.com/science/math/a25873/riddle-of-the-week-22/
p384
sg21
VMar 30, 2017
p385
sba(iarticle
Article
p386
(dp387
g3
g4
(S'\x07\xe1\x03\x1e\t\x00\x00\x00\x00\x00'
p388
tp389
Rp390
sg8
VBehold the beauty of the Aurora Australis.
p391
sg10
VAustralia Just Experienced Some Stunning Southern Lights
p392
sg12
Vhttp://pop.h-cdn.co/assets/17/13/640x320/1490820602-landscape-1490806455-screen-shot-2017-03-29-at-125007-pm.png
p393
sg14
F18.50053824305954
sg15
VEarth
p394
sg17
g18
sg19
Vhttps://www.popularmechanics.com/science/environment/a25871/australia-southern-lights-photos/
p395
sg21
VMar 30, 2017
p396
sba(iarticle
Article
p397
(dp398
g3
g4
(S'\x07\xe1\x03\x1d\r\x02\x00\x00\x00\x00'
p399
tp400
Rp401
sg8
VResearchers are developing technology to wirelessly transmit the look and taste of lemonade and other drinks.
p402
sg10
VScientists Invented a Way to Email Lemonade
p403
sg12
Vhttp://pop.h-cdn.co/assets/17/13/640x320/landscape-1490805456-gettyimages-543679307.jpg
p404
sg14
F3.0536236097883718
sg15
VScience
p405
sg17
g18
sg19
Vhttps://www.popularmechanics.com/science/a25866/send-drinks-over-the-internet/
p406
sg21
VMar 29, 2017
p407
sba(iarticle
Article
p408
(dp409
g3
g4
(S'\x07\xe1\x03\x1c\r$\x00\x00\x00\x00'
p410
tp411
Rp412
sg8
VThe drawing's impressionistic nature gives us greater insight into the as-yet-unsolvable problem.
p413
sg10
VThis Sea Monster Is a Famously Unsolved Math Problem
p414
sg12
Vhttp://pop.h-cdn.co/assets/17/13/640x320/landscape-1490719315-collatz.jpg
p415
sg14
F1.2139071776159576
sg15
VMath
p416
sg17
g18
sg19
Vhttps://www.popularmechanics.com/science/math/a25847/sea-monster-collatz-conjecture/
p417
sg21
VMar 28, 2017
p418
sba(iarticle
Article
p419
(dp420
g3
g4
(S'\x07\xe1\x03\x1b\x0f1\x00\x00\x00\x00'
p421
tp422
Rp423
sg8
VThe Southern Lights are just as beautiful as the more familiar Borealis.
p424
sg10
VWatch an Incredible Video of the Aurora Australis
p425
sg12
Vhttp://pop.h-cdn.co/assets/17/13/480x240/landscape-1490643042-aurora.gif
p426
sg14
F2.5335591104707578
sg15
VEarth
p427
sg17
g18
sg19
Vhttps://www.popularmechanics.com/science/environment/a25834/aurora-australis-flight/
p428
sg21
VMar 27, 2017
p429
sba(iarticle
Article
p430
(dp431
g3
g4
(S'\x07\xe1\x03\x1b\r:\x00\x00\x00\x00'
p432
tp433
Rp434
sg8
VScientists working in "Australia's Jurassic Park" have found more than a thousand dinosaur tracks from almost two dozen species.
p435
sg10
VScientists Uncover Giant Dino Tracks in 'Australia's Jurassic Park'
p436
sg12
Vhttp://pop.h-cdn.co/assets/17/13/640x320/landscape-1490637114-dino.gif
p437
sg14
F1.5458809020606072
sg15
VAnimals
p438
sg17
g18
sg19
Vhttps://www.popularmechanics.com/science/animals/a25831/scientists-uncover-giant-dino-tracks/
p439
sg21
VMar 27, 2017
p440
sba(iarticle
Article
p441
(dp442
g3
g4
(S'\x07\xe1\x03\x1b\x0c\x1b\x00\x00\x00\x00'
p443
tp444
Rp445
sg8
VPopeye would be proud.
p446
sg10
VScientists Use Spinach To Build New Blood Vessels For Your Heart
p447
sg12
V//pop.h-cdn.co/assets/popularmechanics/20170411174720/images/blank.png
p448
sg14
F10.607369973212524
sg15
VHealth
p449
sg17
g18
sg19
Vhttps://www.popularmechanics.com/science/health/a25829/spinach-blood-vessels/
p450
sg21
VMar 27, 2017
p451
sba(iarticle
Article
p452
(dp453
g3
g4
(S'\x07\xe1\x03\x1b\n"\x00\x00\x00\x00'
p454
tp455
Rp456
sg8
VScientists don't know as much as they should about the farthest fathoms of a valuable body of water\u2014but that's about to change.
p457
sg10
VUnlocking the Secrets Buried Deep in the Gulf of Mexico
p458
sg12
V//pop.h-cdn.co/assets/popularmechanics/20170411174720/images/blank.png
p459
sg14
F10.388631747642647
sg15
VEnergy
p460
sg17
g18
sg19
Vhttps://www.popularmechanics.com/science/energy/a25472/gulf-of-mexico-science/
p461
sg21
VMar 27, 2017
p462
sba(iarticle
Article
p463
(dp464
g3
g4
(S'\x07\xe1\x03\x1b\n \x00\x00\x00\x00'
p465
tp466
Rp467
sg8
VAccording to Elon Musk, Tesla's innovative solar shingles will be available to order starting in April.
p468
sg10
VYou Can Buy Tesla's Solar Shingles Next Month
p469
sg12
V//pop.h-cdn.co/assets/popularmechanics/20170411174720/images/blank.png
p470
sg14
F131.25746298943213
sg15
VEnergy
p471
sg17
g18
sg19
Vhttps://www.popularmechanics.com/science/energy/a25819/you-can-buy-teslas-solar-shingles-next-month/
p472
sg21
VMar 27, 2017
p473
sba(iarticle
Article
p474
(dp475
g3
g4
(S'\x07\xe1\x03\x19\r\x08\x00\x00\x00\x00'
p476
tp477
Rp478
sg8
VBut keep drinking your $15 green juice, suckers.
p479
sg10
VBad Luck Causes Most Cancer, New Study Finds
p480
sg12
V//pop.h-cdn.co/assets/popularmechanics/20170411174720/images/blank.png
p481
sg14
F38.51969899189765
sg15
VHealth
p482
sg17
g18
sg19
Vhttps://www.popularmechanics.com/science/health/a25821/bad-luck-causes-cancer/
p483
sg21
VMar 25, 2017
p484
sba(iarticle
Article
p485
(dp486
g3
g4
(S'\x07\xe1\x03\x18\x105\x00\x00\x00\x00'
p487
tp488
Rp489
sg8
VDifficulty level: Moderate
p490
sg10
VSolution to Riddle of the Week #21: Racing Camels
p491
sg12
V//pop.h-cdn.co/assets/popularmechanics/20170411174720/images/blank.png
p492
sg14
Nsg15
VAnimals
p493
sg17
g18
sg19
Vhttps://www.popularmechanics.com/science/animals/a25815/solution-to-riddle-of-the-week-21/
p494
sg21
VMar 24, 2017
p495
sba(iarticle
Article
p496
(dp497
g3
g4
(S'\x07\xe1\x03\x18\x105\x00\x00\x00\x00'
p498
tp499
Rp500
sg8
VDifficulty level: Moderate
p501
sg10
VRiddle of the Week #21: Racing Camels
p502
sg12
Vhttp://pop.h-cdn.co/assets/17/12/640x320/landscape-1490388635-camel.jpg
p503
sg14
F1.8026863143938157
sg15
VAnimals
p504
sg17
g18
sg19
Vhttps://www.popularmechanics.com/science/animals/a25814/riddle-of-the-week-21/
p505
sg21
VMar 24, 2017
p506
sba(iarticle
Article
p507
(dp508
g3
g4
(S'\x07\xe1\x03\x18\x0e.\x00\x00\x00\x00'
p509
tp510
Rp511
sg8
VIt's never fun to try and get your sofa around a tight corner. Here's the mathematically best way to do it.
p512
sg10
VWhy Mathematicians Cannot Solve the Problem of Moving Your Sofa
p513
sg12
Vhttp://pop.h-cdn.co/assets/17/12/640x320/landscape-1490376907-math.gif
p514
sg14
F5.154506052015265
sg15
VMath
p515
sg17
g18
sg19
Vhttps://www.popularmechanics.com/science/math/a25808/moving-sofa-problem/
p516
sg21
VMar 24, 2017
p517
sba(iarticle
Article
p518
(dp519
g3
g4
(S'\x07\xe1\x03\x17\x12\x08\x00\x00\x00\x00'
p520
tp521
Rp522
sg8
VTraveling faster than light is impossible. But if it weren't, what would it look like?
p523
sg10
VThe Impossible Physics of Faster-Than-Light Travel
p524
sg12
Vhttp://pop.h-cdn.co/assets/17/12/640x320/landscape-1490305564-gettyimages-680804613.jpg
p525
sg14
F18.814778485562577
sg15
VScience
p526
sg17
g18
sg19
Vhttps://www.popularmechanics.com/science/a25800/impossible-physics-of-faster-than-light-travel/
p527
sg21
VMar 23, 2017
p528
sba(iarticle
Article
p529
(dp530
g3
g4
(S'\x07\xe1\x03\x17\t\x00\x00\x00\x00\x00'
p531
tp532
Rp533
sg8
VThe giant honeycomb-like setup of 149 spotlights uses xenon short-arc lamps normally found in cinemas to simulate natural sunlight.
p534
sg10
VScientists Test the World's Largest "Artificial Sun"
p535
sg12
Vhttp://pop.h-cdn.co/assets/17/12/640x320/landscape-1490273903-german-light.jpg
p536
sg14
F4.132898479052079
sg15
VGreen Tech
p537
sg17
g18
sg19
Vhttps://www.popularmechanics.com/science/green-tech/a25786/scientists-test-the-worlds-largest-artificial-sun/
p538
sg21
VMar 23, 2017
p539
sba(iarticle
Article
p540
(dp541
g3
g4
(S'\x07\xe1\x03\x16\x0e\x18\x00\x00\x00\x00'
p542
tp543
Rp544
sg8
VYou don't have to have afterburners to make shock diamonds.
p545
sg10
VEven a Soda Bottle Rocket Can Do One of a Fighter Jet's Coolest Tricks
p546
sg12
Vhttp://pop.h-cdn.co/assets/17/12/640x320/landscape-1490202651-shock.gif
p547
sg14
F1.5870980683326543
sg15
VScience
p548
sg17
g18
sg19
Vhttps://www.popularmechanics.com/science/a25777/soda-bottle-rocket-shock-diamonds/
p549
sg21
VMar 22, 2017
p550
sba(iarticle
Article
p551
(dp552
g3
g4
(S'\x07\xe1\x03\x16\x083\x00\x00\x00\x00'
p553
tp554
Rp555
sg8
VBottles of gin, whiskey and wine
p556
sg10
VArcheologists Find Cache of Liquor Bottles From WWI
p557
sg12
Vhttp://pop.h-cdn.co/assets/17/12/640x320/landscape-1490186944-israel-archaeology-lime.jpg
p558
sg14
F1.0398518707085413
sg15
VArchaeology
p559
sg17
g18
sg19
Vhttps://www.popularmechanics.com/science/archaeology/a25771/archeologists-find-cache-of-liquor-bottles-from-wwi/
p560
sg21
VMar 22, 2017
p561
sba(iarticle
Article
p562
(dp563
g3
g4
(S'\x07\xe1\x03\x15\x12\x10\x00\x00\x00\x00'
p564
tp565
Rp566
sg8
VThe discovery of the excited states of the charmed omega baryon could uncover new secrets about this type of particle and the quarks that...
p567
sg10
VScientists At Large Hadron Collider Discover Five New Particle States
p568
sg12
Vhttp://pop.h-cdn.co/assets/16/39/640x320/landscape-1475185439-gettyimages-124821563.jpg
p569
sg14
F25.569731777046403
sg15
VScience
p570
sg17
g18
sg19
Vhttps://www.popularmechanics.com/science/a25768/lhc-scientists-discover-new-particle-states/
p571
sg21
VMar 21, 2017
p572
sba(iarticle
Article
p573
(dp574
g3
g4
(S'\x07\xe1\x03\x14\x0c9\x00\x00\x00\x00'
p575
tp576
Rp577
sg8
VThe proof of the four color problem remained elusive for over a century, until two mathematicians with a computer took a closer look.
p578
sg10
VHow Math Proved You Only Need Four Colors to Color in Any Map
p579
sg12
Vhttp://pop.h-cdn.co/assets/17/12/640x320/landscape-1490027985-gettyimages-184967086.jpg
p580
sg14
F25.62234285952712
sg15
VMath
p581
sg17
g18
sg19
Vhttps://www.popularmechanics.com/science/math/a25746/how-computer-solved-100-year-old-problem/
p582
sg21
VMar 20, 2017
p583
sba(iarticle
Article
p584
(dp585
g3
g4
(S'\x07\xe1\x03\x11\r\x07\x00\x00\x00\x00'
p586
tp587
Rp588
sg8
VThe eruption on Mt. Etna caught several tourists and a film crew off guard.
p589
sg10
VJournalists and Tourists Flee from Giant Volcano Eruption
p590
sg12
Vhttp://pop.h-cdn.co/assets/17/11/640x320/landscape-1489769885-explosion.gif
p591
sg14
F1.9147911601741168
sg15
VEarth
p592
sg17
g18
sg19
Vhttps://www.popularmechanics.com/science/environment/a25731/journalists-flee-from-volcano-eruption/
p593
sg21
VMar 17, 2017
p594
sba(iarticle
Article
p595
(dp596
g3
g4
(S"\x07\xe1\x03\x11\n'\x00\x00\x00\x00"
p597
tp598
Rp599
sg8
VEarth is arguably the most important place NASA studies. We gotta live on this rock, after all.
p600
sg10
VWhat Happens If Trump Guts NASA's Earth Science Budget?
p601
sg12
Vhttp://pop.h-cdn.co/assets/16/41/640x320/landscape-1476212378-sh-20070929t124558-tm8-0026-bl.jpg
p602
sg14
F17.9485762833119
sg15
VEarth
p603
sg17
g18
sg19
Vhttps://www.popularmechanics.com/science/environment/a24031/trump-nasa-earth-science-budget/
p604
sg21
VMar 17, 2017
p605
sba(iarticle
Article
p606
(dp607
g3
g4
(S'\x07\xe1\x03\x10\x12\n\x00\x00\x00\x00'
p608
tp609
Rp610
sg8
VThey have a secret weapon.
p611
sg10
VHow Does the World's Toughest Creature Survive a Total Drought?
p612
sg12
V//pop.h-cdn.co/assets/popularmechanics/20170411174720/images/blank.png
p613
sg14
F0.9907062407861189
sg15
VAnimals
p614
sg17
g18
sg19
Vhttps://www.popularmechanics.com/science/animals/a25721/tardigrades-are-cool/
p615
sg21
VMar 16, 2017
p616
sba(iarticle
Article
p617
(dp618
g3
g4
(S'\x07\xe1\x03\x10\x0e;\x00\x00\x00\x00'
p619
tp620
Rp621
sg8
VDifficulty level: Easy
p622
sg10
VSolution to Riddle of the Week #20: One Light and Three Switches
p623
sg12
V//pop.h-cdn.co/assets/popularmechanics/20170411174720/images/blank.png
p624
sg14
Nsg15
VMath
p625
sg17
g18
sg19
Vhttps://www.popularmechanics.com/science/math/a25716/solution-to-riddle-of-the-week-20/
p626
sg21
VMar 16, 2017
p627
sba(iarticle
Article
p628
(dp629
g3
g4
(S'\x07\xe1\x03\x10\x0e8\x00\x00\x00\x00'
p630
tp631
Rp632
sg8
VDifficulty level: Easy
p633
sg10
VRiddle of the Week #20: One Light and Three Switches
p634
sg12
V//pop.h-cdn.co/assets/popularmechanics/20170411174720/images/blank.png
p635
sg14
F4.268736476853437
sg15
VMath
p636
sg17
g18
sg19
Vhttps://www.popularmechanics.com/science/math/a25713/riddle-of-the-week-20/
p637
sg21
VMar 16, 2017
p638
sba(iarticle
Article
p639
(dp640
g3
g4
(S'\x07\xe1\x03\x10\x0e\x00\x00\x00\x00\x00'
p641
tp642
Rp643
sg8
VThe potentially 4.3-billion-year-old rock was just discovered in Canada.
p644
sg10
VA Chunk of Earth's Original Crust Has Been Discovered
p645
sg12
V//pop.h-cdn.co/assets/popularmechanics/20170411174720/images/blank.png
p646
sg14
F221.21118925383485
sg15
VEarth
p647
sg17
g18
sg19
Vhttps://www.popularmechanics.com/science/environment/a25711/earth-original-crust-basalt/
p648
sg21
VMar 16, 2017
p649
sba(iarticle
Article
p650
(dp651
g3
g4
(S'\x07\xe1\x03\x10\t\x1e\x00\x00\x00\x00'
p652
tp653
Rp654
sg8
VTeleportation is real, thanks to quantum entanglement.
p655
sg10
VHow Quantum Teleportation Actually Works
p656
sg12
V//pop.h-cdn.co/assets/popularmechanics/20170411174720/images/blank.png
p657
sg14
F2.4132678164352304
sg15
VScience
p658
sg17
g18
sg19
Vhttps://www.popularmechanics.com/science/a25699/how-quantum-teleportation-works/
p659
sg21
VMar 16, 2017
p660
sba(iarticle
Article
p661
(dp662
g3
g4
(S'\x07\xe1\x03\x10\x07\x10\x00\x00\x00\x00'
p663
tp664
Rp665
sg8
VDozens of whales have been spotted off the western coast of South Africa without any apparent explanation.
p666
sg10
VWhales Are Swarming Near South Africa and No One Knows Why
p667
sg12
Vhttp://pop.h-cdn.co/assets/17/11/640x320/landscape-1489616437-gettyimages-569023677.jpg
p668
sg14
F4.047483962940929
sg15
VAnimals
p669
sg17
g18
sg19
Vhttps://www.popularmechanics.com/science/animals/a25705/whale-swarm-south-africa/
p670
sg21
VMar 16, 2017
p671
sba(iarticle
Article
p672
(dp673
g3
g4
(S'\x07\xe1\x03\x0e\x12\x1f\x00\x00\x00\x00'
p674
tp675
Rp676
sg8
VAn adhesive used by mollusks to stick to rocks was adapted into a powerful underwater glue.
p677
sg10
VThis Barnacle-Inspired Glue Works Amazingly Well Underwater
p678
sg12
Vhttp://pop.h-cdn.co/assets/17/11/640x320/landscape-1489529652-water.jpg
p679
sg14
F2.033940798551288
sg15
VScience
p680
sg17
g18
sg19
Vhttps://www.popularmechanics.com/science/a25683/scientists-turn-to-mollusks-to-make-underwater-glue/
p681
sg21
VMar 14, 2017
p682
sba(iarticle
Article
p683
(dp684
g3
g4
(S'\x07\xe1\x03\x0e\x0e\x19\x00\x00\x00\x00'
p685
tp686
Rp687
sg8
VWe all know pi is (roughly) 3.14, but where did that number come from?
p688
sg10
VPi Makes Perfect Sense in These Simple Animations
p689
sg12
Vhttp://pop.h-cdn.co/assets/17/11/640x320/landscape-1489516856-sinetop.gif
p690
sg14
F1.13914404224443
sg15
VMath
p691
sg17
g18
sg19
Vhttps://www.popularmechanics.com/science/math/a25675/animations-pi-explained/
p692
sg21
VMar 14, 2017
p693
sba(iarticle
Article
p694
(dp695
g3
g4
(S'\x07\xe1\x03\x0e\n6\x00\x00\x00\x00'
p696
tp697
Rp698
sg8
VThe Republican-controlled state legislature is close to lifting its decades-long moratorium on nuclear energy in a state that has been...
p699
sg10
VCan Kentucky Coal Country Embrace Nuclear Power?
p700
sg12
Vhttp://pop.h-cdn.co/assets/17/11/640x320/landscape-1489503167-nuclear-power-kentuck-mose.jpg
p701
sg14
Nsg15
VEnergy
p702
sg17
g18
sg19
Vhttps://www.popularmechanics.com/science/energy/a25665/can-kentucky-coal-country-embrace-nuclear-power/
p703
sg21
VMar 14, 2017
p704
sba(iarticle
Article
p705
(dp706
g3
g4
(S'\x07\xe1\x03\r\x12%\x00\x00\x00\x00'
p707
tp708
Rp709
sg8
VThe submarine is heading into the Antarctic to investigate Climate McClimate Change.
p710
sg10
VBoaty McBoatface Heads Off to First Mission in Antarctica
p711
sg12
Vhttp://pop.h-cdn.co/assets/17/11/640x320/landscape-1489442762-p1000614-736x552.jpg
p712
sg14
F2.4052561597236113
sg15
VEarth
p713
sg17
g18
sg19
Vhttps://www.popularmechanics.com/science/environment/a25661/boaty-mcboatface-first-mission/
p714
sg21
VMar 13, 2017
p715
sba(iarticle
Article
p716
(dp717
g3
g4
(S'\x07\xe1\x03\r\x0e\x1f\x00\x00\x00\x00'
p718
tp719
Rp720
sg8
VThis is the kind of thing you have to see to believe.
p721
sg10
VThis House On the Shore of Lake Ontario Is Frozen Solid
p722
sg12
Vhttp://pop.h-cdn.co/assets/17/11/640x176/1489428099-1489422483-screen-shot-2017-03-13-at-122619-pm-copy.png
p723
sg14
F3.1111742379317824
sg15
VEarth
p724
sg17
g18
sg19
Vhttps://www.popularmechanics.com/science/environment/a25651/lake-ontario-ice-house/
p725
sg21
VMar 13, 2017
p726
sba(iarticle
Article
p727
(dp728
g3
g4
(S'\x07\xe1\x03\r\x0c"\x00\x00\x00\x00'
p729
tp730
Rp731
sg8
VUsing Deepmind's AI, the company could optimize the entire country's energy infrastructure to cut costs and reduce emissions.
p732
sg10
VGoogle Wants to Use AI to Cut the UK's Electric Bill by 10 Percent
p733
sg12
Vhttp://pop.h-cdn.co/assets/17/11/640x320/landscape-1489421151-gettyimages-699213255.jpg
p734
sg14
F3.6224358976187263
sg15
VEnergy
p735
sg17
g18
sg19
Vhttps://www.popularmechanics.com/science/energy/a25648/google-save-uk-10-percent-electric-bill/
p736
sg21
VMar 13, 2017
p737
sba(iarticle
Article
p738
(dp739
g3
g4
(S'\x07\xe1\x03\r\x0b\x18\x00\x00\x00\x00'
p740
tp741
Rp742
sg8
VIt may not be the safest but it is spectacular.
p743
sg10
V20,000 Volts Turns a Watermelon Into an Instant Smoothie
p744
sg12
Vhttp://pop.h-cdn.co/assets/17/11/640x320/landscape-1489415178-melly.gif
p745
sg14
F1.8459703009586796
sg15
VScience
p746
sg17
g18
sg19
Vhttps://www.popularmechanics.com/science/a25647/20000-volts-turns-a-watermelon-into/
p747
sg21
VMar 13, 2017
p748
sba(iarticle
Article
p749
(dp750
g3
g4
(S'\x07\xe1\x03\x0c\t\x00\x00\x00\x00\x00'
p751
tp752
Rp753
sg8
VThe technical term for it is "super bloom."
p754
sg10
VThe Science of Desert Superblooms
p755
sg12
Vhttp://pop.h-cdn.co/assets/17/10/640x320/1489172965-1489111871-landscape-1488820391-index-flower-desert.jpg
p756
sg14
F1.4857758760566473
sg15
VScience
p757
sg17
g18
sg19
Vhttps://www.popularmechanics.com/science/a25628/anza-borrego-desert-flowers/
p758
sg21
VMar 12, 2017
p759
sba(iarticle
Article
p760
(dp761
g3
g4
(S'\x07\xe1\x03\n\x0f$\x00\x00\x00\x00'
p762
tp763
Rp764
sg8
VThe agreement would help the struggling state of South Australia.
p765
sg10
VTesla Bets It Can Build 100MWh of Batteries in 100 Days
p766
sg12
Vhttp://pop.h-cdn.co/assets/17/10/640x320/landscape-1489176373-tesla.png
p767
sg14
F5.108846112151808
sg15
VEnergy
p768
sg17
g18
sg19
Vhttps://www.popularmechanics.com/science/energy/a25630/tesla-bet-100mwh-batteries-in-100-days/
p769
sg21
VMar 10, 2017
p770
sba(iarticle
Article
p771
(dp772
g3
g4
(S'\x07\xe1\x03\n\r6\x00\x00\x00\x00'
p773
tp774
Rp775
sg8
VThis marks the first time CRISPR has been used on viable human embryos.
p776
sg10
VChinese Scientists Genetically Modify Human Embryos
p777
sg12
V//pop.h-cdn.co/assets/popularmechanics/20170411174720/images/blank.png
p778
sg14
F7.23724115813941
sg15
VScience
p779
sg17
g18
sg19
Vhttps://www.popularmechanics.com/science/a25626/chinese-scientists-genetically-modify-human-embryos/
p780
sg21
VMar 10, 2017
p781
sba(iarticle
Article
p782
(dp783
g3
g4
(S'\x07\xe1\x03\n\t#\x00\x00\x00\x00'
p784
tp785
Rp786
sg8
VExperts are already calling the bust of Ramses II one of the greatest finds of all time.
p787
sg10
VA Colossal 3,000-Year-Old Statue Was Just Discovered Under a Slum in Cairo
p788
sg12
V//pop.h-cdn.co/assets/popularmechanics/20170411174720/images/blank.png
p789
sg14
F2.2652008466961453
sg15
VArchaeology
p790
sg17
g18
sg19
Vhttps://www.popularmechanics.com/science/archaeology/a25620/ramses-ii-statue-found-cairo-egypt/
p791
sg21
VMar 10, 2017
p792
sba(iarticle
Article
p793
(dp794
g3
g4
(S'\x07\xe1\x03\t\x12\x15\x00\x00\x00\x00'
p795
tp796
Rp797
sg8
VThe new 13-megawatt solar farm also includes 52 megawatt-hours of battery storage.
p798
sg10
VTesla-Backed Solar Farm Provides Power Day or Night
p799
sg12
V//pop.h-cdn.co/assets/popularmechanics/20170411174720/images/blank.png
p800
sg14
F7.1944951211572965
sg15
VEnergy
p801
sg17
g18
sg19
Vhttps://www.popularmechanics.com/science/energy/a25619/tesla-solar-farm-provides-power-at-night/
p802
sg21
VMar 9, 2017
p803
sba(iarticle
Article
p804
(dp805
g3
g4
(S'\x07\xe1\x03\t\x10\x02\x00\x00\x00\x00'
p806
tp807
Rp808
sg8
VLike opening the tab of a soda can and watching it fizz.
p809
sg10
VRain Splashes All Kinds of Bacteria Up From the Dirt
p810
sg12
V//pop.h-cdn.co/assets/popularmechanics/20170411174720/images/blank.png
p811
sg14
Nsg15
VEarth
p812
sg17
g18
sg19
Vhttps://www.popularmechanics.com/science/environment/a25614/rain-bacteria-dirt/
p813
sg21
VMar 9, 2017
p814
sba(iarticle
Article
p815
(dp816
g3
g4
(S'\x07\xe1\x03\t\x0e\x04\x00\x00\x00\x00'
p817
tp818
Rp819
sg8
VDifficulty level: Moderate
p820
sg10
VSolution to Riddle of the Week #19: The Missing Dollar
p821
sg12
V//pop.h-cdn.co/assets/popularmechanics/20170411174720/images/blank.png
p822
sg14
F0.5840343660962642
sg15
VMath
p823
sg17
g18
sg19
Vhttps://www.popularmechanics.com/science/math/a25593/solution-to-riddle-of-the-week-19/
p824
sg21
VMar 9, 2017
p825
sba(iarticle
Article
p826
(dp827
g3
g4
(S'\x07\xe1\x03\t\x0e\x04\x00\x00\x00\x00'
p828
tp829
Rp830
sg8
VDifficulty level: Moderate
p831
sg10
VRiddle of the Week #19: Can You Find the Missing Dollar?
p832
sg12
Vhttp://pop.h-cdn.co/assets/17/10/640x320/landscape-1489086171-dollar.jpg
p833
sg14
F2.1115088620403397
sg15
VMath
p834
sg17
g18
sg19
Vhttps://www.popularmechanics.com/science/math/a25591/riddle-of-the-week-19/
p835
sg21
VMar 9, 2017
p836
sba(iarticle
Article
p837
(dp838
g3
g4
(S'\x07\xe1\x03\x08\x10$\x00\x00\x00\x00'
p839
tp840
Rp841
sg8
VIf you thought molten copper looked cool before, watch what happens when the lights go out.
p842
sg10
VThis Is What Molten Copper Looks Like in the Dark
p843
sg12
Vhttp://pop.h-cdn.co/assets/17/10/640x320/landscape-1489006466-copper.gif
p844
sg14
F0.748694639579838
sg15
VScience
p845
sg17
g18
sg19
Vhttps://www.popularmechanics.com/science/a25596/molten-copper-slow-mo/
p846
sg21
VMar 8, 2017
p847
sba(iarticle
Article
p848
(dp849
g3
g4
(S"\x07\xe1\x03\x08\r'\x00\x00\x00\x00"
p850
tp851
Rp852
sg8
VResearchers uncovered evidence that suggests better eyesight was what spurred ancient fish to make the move to land.
p853
sg10
VVision Might Have Kickstarted Evolution on Land
p854
sg12
Vhttp://pop.h-cdn.co/assets/17/10/640x320/landscape-1488996061-fish.jpg
p855
sg14
F0.8784395700424655
sg15
VAnimals
p856
sg17
g18
sg19
Vhttps://www.popularmechanics.com/science/animals/a25587/eyes-led-evolution-to-land/
p857
sg21
VMar 8, 2017
p858
sba(iarticle
Article
p859
(dp860
g3
g4
(S'\x07\xe1\x03\x08\r\x1b\x00\x00\x00\x00'
p861
tp862
Rp863
sg8
VMartians discover the marvels of petroleum in "Destination Earth."
p864
sg10
VMartians Discover the Wonders of Petroleum in This Silly 1950s Cartoon
p865
sg12
Vhttp://pop.h-cdn.co/assets/17/10/640x320/landscape-1488990872-dest-mars.jpg
p866
sg14
F0.8782788377748338
sg15
VEnergy
p867
sg17
g18
sg19
Vhttps://www.popularmechanics.com/science/energy/a25584/vintage-1956-film-destination-earth/
p868
sg21
VMar 8, 2017
p869
sba(iarticle
Article
p870
(dp871
g3
g4
(S'\x07\xe1\x03\x08\t5\x00\x00\x00\x00'
p872
tp873
Rp874
sg8
VIt takes some clever geometry.
p875
sg10
VThe Science of How Trains Turn Without Falling Off the Tracks
p876
sg12
Vhttp://pop.h-cdn.co/assets/17/10/640x320/landscape-1488933876-train.gif
p877
sg14
F54.71389320000031
sg15
VScience
p878
sg17
g18
sg19
Vhttps://www.popularmechanics.com/science/a25581/science-behind-train-tracks-wheels/
p879
sg21
VMar 8, 2017
p880
sba(iarticle
Article
p881
(dp882
g3
g4
(S'\x07\xe1\x03\x06\x12\x11\x00\x00\x00\x00'
p883
tp884
Rp885
sg8
VNASA's Cold Atom Laboratory will cool atoms to a billionth of a degree above absolute zero in order to study strange physics.
p886
sg10
VThe Coldest Place on Earth Is Going to Space
p887
sg12
Vhttp://pop.h-cdn.co/assets/17/10/640x320/landscape-1488841342-laser.jpg
p888
sg14
F3.717610807240129
sg15
VScience
p889
sg17
g18
sg19
Vhttps://www.popularmechanics.com/science/a25562/coldest-place-on-earth-going-to-space/
p890
sg21
VMar 6, 2017
p891
sba(iarticle
Article
p892
(dp893
g3
g4
(S'\x07\xe1\x03\x06\x0e\x0f\x00\x00\x00\x00'
p894
tp895
Rp896
sg8
VThe new material can also be wrung out and reused, which could dramatically reduce cleanup costs for oil spills.
p897
sg10
VNew 'Sponge' Material Can Absorb 90 Times Its Weight in Oil
p898
sg12
Vhttp://pop.h-cdn.co/assets/17/10/640x320/landscape-1488827180-xpunbd.gif
p899
sg14
F8.356084659049246
sg15
VScience
p900
sg17
g18
sg19
Vhttps://www.popularmechanics.com/science/a25553/sponge-material-absorb-90-times-weight-in-oil/
p901
sg21
VMar 6, 2017
p902
sba(iarticle
Article
p903
(dp904
g3
g4
(S'\x07\xe1\x03\x06\n&\x00\x00\x00\x00'
p905
tp906
Rp907
sg8
VMany Thais believe that throwing coins on turtles will bring longevity.
p908
sg10
VThis Sea Turtle Ate 915 Coins and Survived
p909
sg12
Vhttp://pop.h-cdn.co/assets/17/10/640x320/landscape-1488814353-thailand-turtle-troub-mose.jpg
p910
sg14
F1.783429405555101
sg15
VAnimals
p911
sg17
g18
sg19
Vhttps://www.popularmechanics.com/science/animals/a25548/this-sea-turtle-ate-915-coins-and-survived/
p912
sg21
VMar 6, 2017
p913
sba(iarticle
Article
p914
(dp915
g3
g4
(S'\x07\xe1\x03\x05\x0c0\x00\x00\x00\x00'
p916
tp917
Rp918
sg8
VThe huge invasive fish could wreak havoc on the ecosystem.
p919
sg10
VMichigan Will Offer Prize To Someone Who Can Solve Their Asian Carp Problem
p920
sg12
Vhttp://pop.h-cdn.co/assets/17/09/640x320/landscape-1488735982-dead-carp.jpg
p921
sg14
F8.585421835149168
sg15
VAnimals
p922
sg17
g18
sg19
Vhttps://www.popularmechanics.com/science/animals/a25544/michigan-asian-carp-problem/
p923
sg21
VMar 5, 2017
p924
sba(iarticle
Article
p925
(dp926
g3
g4
(S'\x07\xe1\x03\x03\x10&\x00\x00\x00\x00'
p927
tp928
Rp929
sg8
VIt's considerably more spacious than our apartments.
p930
sg10
VAn Antarctic Research Station's Living Quarters Are Surprisingly Comfy
p931
sg12
Vhttp://pop.h-cdn.co/assets/17/09/640x320/landscape-1488575244-antarctic.jpg
p932
sg14
F1.5472818446707377
sg15
VScience
p933
sg17
g18
sg19
Vhttps://www.popularmechanics.com/science/a25534/antarctic-living-tour/
p934
sg21
VMar 3, 2017
p935
sba(iarticle
Article
p936
(dp937
g3
g4
(S'\x07\xe1\x03\x03\x10\x1a\x00\x00\x00\x00'
p938
tp939
Rp940
sg8
VIn 1980, John Goodenough invented the modern lithium-ion battery. Now he's just invented the battery of the future.
p941
sg10
VThe Inventor of the Lithium-Ion Battery Invents an Even Better One
p942
sg12
V//pop.h-cdn.co/assets/popularmechanics/20170411174720/images/blank.png
p943
sg14
F15.589263098886674
sg15
VEnergy
p944
sg17
g18
sg19
Vhttps://www.popularmechanics.com/science/energy/a25536/inventor-lithium-ion-battery-invented-another-battery/
p945
sg21
VMar 3, 2017
p946
sba(iarticle
Article
p947
(dp948
g3
g4
(S'\x07\xe1\x03\x03\n\x0b\x00\x00\x00\x00'
p949
tp950
Rp951
sg8
VEverything looks different in infrared.
p952
sg10
VInfrared Vision Turns the Northwest Into an Alien Planet
p953
sg12
V//pop.h-cdn.co/assets/popularmechanics/20170411174720/images/blank.png
p954
sg14
F3.354398045642925
sg15
VScience
p955
sg17
g18
sg19
Vhttps://www.popularmechanics.com/science/a25521/captivating-landscapes-in-the-northwest/
p956
sg21
VMar 3, 2017
p957
sba(iarticle
Article
p958
(dp959
g3
g4
(S'\x07\xe1\x03\x03\t\x12\x00\x00\x00\x00'
p960
tp961
Rp962
sg8
VThe magic of GoPros.
p963
sg10
VWatch a Fox Being Hunted From an Eagle's Perspective
p964
sg12
V//pop.h-cdn.co/assets/popularmechanics/20170411174720/images/blank.png
p965
sg14
F2.543548941796829
sg15
VEarth
p966
sg17
g18
sg19
Vhttps://www.popularmechanics.com/science/environment/a25523/eagle-fox-gopro/
p967
sg21
VMar 3, 2017
p968
sba(iarticle
Article
p969
(dp970
g3
g4
(S'\x07\xe1\x03\x02\x0e\x11\x00\x00\x00\x00'
p971
tp972
Rp973
sg8
VCreating realistic mannequins for medical training is difficult. So one grad student printed his own.
p974
sg10
VThese Eerie 3D-Printed Baby Skeletons Could Help Surgeons-in-Training
p975
sg12
V//pop.h-cdn.co/assets/popularmechanics/20170411174720/images/blank.png
p976
sg14
F3.3974710861054445
sg15
VHealth
p977
sg17
g18
sg19
Vhttps://www.popularmechanics.com/science/health/a25513/3d-printed-infant-body-parts/
p978
sg21
VMar 2, 2017
p979
sba(iarticle
Article
p980
(dp981
g3
g4
(S'\x07\xe1\x03\x02\x0e\x04\x00\x00\x00\x00'
p982
tp983
Rp984
sg8
VThis is how it looks to wrangle plasma.
p985
sg10
VHere's What Actually Happens in a Nuclear Fusion Reactor
p986
sg12
V//pop.h-cdn.co/assets/popularmechanics/20170411174720/images/blank.png
p987
sg14
F9.957698562775589
sg15
VEnergy
p988
sg17
g18
sg19
Vhttps://www.popularmechanics.com/science/energy/a25512/plasma-magentic-field-demonstration-nuclear-fusion/
p989
sg21
VMar 2, 2017
p990
sba(iarticle
Article
p991
(dp992
g3
g4
(S'\x07\xe1\x03\x02\r\x14\x00\x00\x00\x00'
p993
tp994
Rp995
sg8
VThe case that we're living in the Age of Man is stronger than ever.
p996
sg10
VHumanity Has Created Thousands of Artificial Minerals
p997
sg12
Vhttp://pop.h-cdn.co/assets/15/41/640x320/landscape-1444331938-earth-20-kepler-452b-featured-image-e1438548457723.jpg
p998
sg14
F0.7177708688040677
sg15
VEarth
p999
sg17
g18
sg19
Vhttps://www.popularmechanics.com/science/environment/a25510/new-research-bolsters-case-for-anthropocene/
p1000
sg21
VMar 2, 2017
p1001
sba(iarticle
Article
p1002
(dp1003
g3
g4
(S'\x07\xe1\x03\x02\x0c2\x00\x00\x00\x00'
p1004
tp1005
Rp1006
sg8
VDifficulty level: Moderate
p1007
sg10
VRiddle of the Week #18: An Engineer, a Physicist, and a Mathematician Build a Fence
p1008
sg12
Vhttp://pop.h-cdn.co/assets/17/09/640x320/landscape-1488473911-fences.jpg
p1009
sg14
F12.604394166517602
sg15
VMath
p1010
sg17
g18
sg19
Vhttps://www.popularmechanics.com/science/math/a25508/riddle-of-the-week-18/
p1011
sg21
VMar 2, 2017
p1012
sba(iarticle
Article
p1013
(dp1014
g3
g4
(S'\x07\xe1\x03\x02\x0c2\x00\x00\x00\x00'
p1015
tp1016
Rp1017
sg8
VDifficultly level: Moderate
p1018
sg10
VSolution to Riddle of the Week #18: An Engineer, a Physicist, and a Mathematician Build a Fence
p1019
sg12
Vhttp://pop.h-cdn.co/assets/17/09/640x320/landscape-1488473911-fences.jpg
p1020
sg14
Nsg15
VMath
p1021
sg17
g18
sg19
Vhttps://www.popularmechanics.com/science/math/a25509/solution-to-riddle-of-the-week-18/
p1022
sg21
VMar 2, 2017
p1023
sba(iarticle
Article
p1024
(dp1025
g3
g4
(S'\x07\xe1\x03\x02\x0c\x00\x00\x00\x00\x00'
p1026
tp1027
Rp1028
sg8
VThe world's largest machine needed a tech upgrade.
p1029
sg10
VWatch the World's Largest Machine Get a Tune Up
p1030
sg12
Vhttp://pop.h-cdn.co/assets/cm/15/05/54ca97d86cd10_-_insidethelhc_500x375_1209-lg.jpg
p1031
sg14
F1.123943023229995
sg15
VScience
p1032
sg17
g18
sg19
Vhttps://www.popularmechanics.com/science/a25506/cern-engineers-repair/
p1033
sg21
VMar 2, 2017
p1034
sba(iarticle
Article
p1035
(dp1036
g3
g4
(S'\x07\xe1\x03\x02\n\x17\x00\x00\x00\x00'
p1037
tp1038
Rp1039
sg8
V90 years old, but still in demand.
p1040
sg10
VThe Most Important Mold in History Just Sold for $14,000
p1041
sg12
Vhttp://pop.h-cdn.co/assets/17/09/640x320/landscape-1488467441-britain-penicillin-mo-lime.jpg
p1042
sg14
F2.1481902755773494
sg15
VHealth
p1043
sg17
g18
sg19
Vhttps://www.popularmechanics.com/science/health/a25502/most-important-mold-sold-14000/
p1044
sg21
VMar 2, 2017
p1045
sba(iarticle
Article
p1046
(dp1047
g3
g4
(S'\x07\xe1\x03\x02\n\x14\x00\x00\x00\x00'
p1048
tp1049
Rp1050
sg8
VMontana Resources and BP-owned Atlantic Richfield Co. are proposing to use four propane cannons on tripods that would be triggered by...
p1051
sg10
VLasers, Cannons, and Drones Are Trying to Keep Geese Out of This Toxic Mine Pit
p1052
sg12
Vhttp://pop.h-cdn.co/assets/17/09/640x320/landscape-1488467641-geese-mine-pit-mose.jpg
p1053
sg14
F1.3159553992539963
sg15
VAnimals
p1054
sg17
g18
sg19
Vhttps://www.popularmechanics.com/science/animals/a25501/lasers-cannons-drones-toxic-mine-pit/
p1055
sg21
VMar 2, 2017
p1056
sba(iarticle
Article
p1057
(dp1058
g3
g4
(S'\x07\xe1\x03\x01\x10\x1a\x00\x00\x00\x00'
p1059
tp1060
Rp1061
sg8
VColor constancy can really mess with your eyes.
p1062
sg10
VThere's Not a Single Red Pixel in This Image
p1063
sg12
Vhttp://pop.h-cdn.co/assets/17/09/1488399818-screen-shot-2017-03-01-at-32147-pm.png
p1064
sg14
F5.112619062496619
sg15
VScience
p1065
sg17
g18
sg19
Vhttps://www.popularmechanics.com/science/a25494/theres-not-a-single-red-pixel-in-this-image/
p1066
sg21
VMar 1, 2017
p1067
sba(iarticle
Article
p1068
(dp1069
g3
g4
(S'\x07\xe1\x03\x01\x10\x08\x00\x00\x00\x00'
p1070
tp1071
Rp1072
sg8
VFirst step to help preserved organs survive the deep freeze.
p1073
sg10
VNew Technique Could Allow for Cryopreserved Organs
p1074
sg12
Vhttp://pop.h-cdn.co/assets/17/09/640x320/landscape-1488402234-cryo.JPG
p1075
sg14
Nsg15
VHealth
p1076
sg17
g18
sg19
Vhttps://www.popularmechanics.com/science/health/a25498/cryopreserved-organs-research/
p1077
sg21
VMar 1, 2017
p1078
sba(iarticle
Article
p1079
(dp1080
g3
g4
(S'\x07\xe1\x03\x01\r"\x00\x00\x00\x00'
p1081
tp1082
Rp1083
sg8
VThe computer can copy itself many times over, making calculations much faster.
p1084
sg10
VScientists Build New Computer Made of DNA
p1085
sg12
Vhttp://pop.h-cdn.co/assets/16/46/640x320/landscape-1479236364-gettyimages-53369318.jpg
p1086
sg14
F13.361563519350462
sg15
VScience
p1087
sg17
g18
sg19
Vhttps://www.popularmechanics.com/science/a25491/new-computer-made-of-dna/
p1088
sg21
VMar 1, 2017
p1089
sba(iarticle
Article
p1090
(dp1091
g3
g4
(S'\x07\xe1\x03\x01\r\x03\x00\x00\x00\x00'
p1092
tp1093
Rp1094
sg8
VThe 3.8-billion-year-old remains offer evidence that life formed on Earth just after the planet formed, at a time when Mars still had...
p1095
sg10
VThe World's Oldest Fossils Unearthed in Canada
p1096
sg12
Vhttp://pop.h-cdn.co/assets/17/09/640x320/landscape-1488388468-image-3-min-filament-3d-3.jpg
p1097
sg14
F19.025770450115818
sg15
VEarth
p1098
sg17
g18
sg19
Vhttps://www.popularmechanics.com/science/environment/a25489/worlds-oldest-fossils-discovered-canada/
p1099
sg21
VMar 1, 2017
p1100
sba(iarticle
Article
p1101
(dp1102
g3
g4
(S'\x07\xe1\x02\x1c\x10;\x00\x00\x00\x00'
p1103
tp1104
Rp1105
sg8
VMuscle memory isn't quite what its name suggests, but practice does make perfect.
p1106
sg10
VHow Practice Actually Changes Your Body
p1107
sg12
V//pop.h-cdn.co/assets/popularmechanics/20170411174720/images/blank.png
p1108
sg14
F0.6929306035462839
sg15
VHealth
p1109
sg17
g18
sg19
Vhttps://www.popularmechanics.com/science/health/a25442/how-physical-practice-makes-perfect/
p1110
sg21
VFeb 28, 2017
p1111
sba(iarticle
Article
p1112
(dp1113
g3
g4
(S'\x07\xe1\x02\x1c\x0b8\x00\x00\x00\x00'
p1114
tp1115
Rp1116
sg8
VSeven elements, one mine.
p1117
sg10
VThe One Swedish Mine That Gave us Seven Chemical Elements
p1118
sg12
V//pop.h-cdn.co/assets/popularmechanics/20170411174720/images/blank.png
p1119
sg14
F2.6302624843224702
sg15
VEarth
p1120
sg17
g18
sg19
Vhttps://www.popularmechanics.com/science/environment/a25435/the-swedish-mine-that-sparked-the-rare-earth-revolution/
p1121
sg21
VFeb 28, 2017
p1122
sba(iarticle
Article
p1123
(dp1124
g3
g4
(S'\x07\xe1\x02\x1c\n)\x00\x00\x00\x00'
p1125
tp1126
Rp1127
sg8
VA new study determined that 84% of wildfires are our fault.
p1128
sg10
VHumans Start a Disturbing Number of America's Wildfires
p1129
sg12
V//pop.h-cdn.co/assets/popularmechanics/20170411174720/images/blank.png
p1130
sg14
F0.5590871177225656
sg15
VEarth
p1131
sg17
g18
sg19
Vhttps://www.popularmechanics.com/science/environment/a25431/america-is-burning/
p1132
sg21
VFeb 28, 2017
p1133
sba(iarticle
Article
p1134
(dp1135
g3
g4
(S'\x07\xe1\x02\x1b\x12\x0f\x00\x00\x00\x00'
p1136
tp1137
Rp1138
sg8
VThe World Health Organization says all twelve bacteria on the list are highly resistant to antibiotics and nearly untreatable.
p1139
sg10
VWHO Ranks the World's Most Dangerous Bacteria
p1140
sg12
V//pop.h-cdn.co/assets/popularmechanics/20170411174720/images/blank.png
p1141
sg14
F3.8274960284659794
sg15
VHealth
p1142
sg17
g18
sg19
Vhttps://www.popularmechanics.com/science/health/a25427/ranked-worlds-most-dangerous-bacteria/
p1143
sg21
VFeb 27, 2017
p1144
sba(iarticle
Article
p1145
(dp1146
g3
g4
(S'\x07\xe1\x02\x1b\r\x14\x00\x00\x00\x00'
p1147
tp1148
Rp1149
sg8
VThe bioprinter could print on-demand skin for burn victims or for use in pharmaceutical testing.
p1150
sg10
VScientists Can Now Print Human Skin
p1151
sg12
V//pop.h-cdn.co/assets/popularmechanics/20170411174720/images/blank.png
p1152
sg14
Nsg15
VHealth
p1153
sg17
g18
sg19
Vhttps://www.popularmechanics.com/science/health/a25418/bioprinter-print-human-skin/
p1154
sg21
VFeb 27, 2017
p1155
sba(iarticle
Article
p1156
(dp1157
g3
g4
(S'\x07\xe1\x02\x1a\x0e\n\x00\x00\x00\x00'
p1158
tp1159
Rp1160
sg8
VDon't hold hands with this person.
p1161
sg10
VThis Ultra-Closeup Of A Finger Sweating Is Unbelievable
p1162
sg12
Vhttp://pop.h-cdn.co/assets/17/08/480x240/landscape-1488135910-fingersweat.gif
p1163
sg14
F2.1796397248013037
sg15
VScience
p1164
sg17
g18
sg19
Vhttps://www.popularmechanics.com/science/a25407/ultra-closeup-finger-sweating/
p1165
sg21
VFeb 26, 2017
p1166
sba(iarticle
Article
p1167
(dp1168
g3
g4
(S'\x07\xe1\x02\x1a\x0b\x00\x00\x00\x00\x00'
p1169
tp1170
Rp1171
sg8
VThe man at fault could face a $5,000 fine.
p1172
sg10
VBuzzing Drone Causes 1,500 Elk To Stampede In Wyoming
p1173
sg12
Vhttp://pop.h-cdn.co/assets/17/08/640x320/landscape-1488124748-elk.jpg
p1174
sg14
F0.7907168971017655
sg15
VAnimals
p1175
sg17
g18
sg19
Vhttps://www.popularmechanics.com/science/animals/a25406/elk-stampede/
p1176
sg21
VFeb 26, 2017
p1177
sba(iarticle
Article
p1178
(dp1179
g3
g4
(S'\x07\xe1\x02\x18\x10\x03\x00\x00\x00\x00'
p1180
tp1181
Rp1182
sg8
VThe map lets you search by period, taxonomy and strata.
p1183
sg10
VCheck Out An Interactive Map of Every Dinosaur Fossil Found On Earth
p1184
sg12
Vhttp://pop.h-cdn.co/assets/17/08/640x320/landscape-1487968675-screen-shot-2017-02-24-at-33736-pm.png
p1185
sg14
F104.46539170793862
sg15
VArchaeology
p1186
sg17
g18
sg19
Vhttps://www.popularmechanics.com/science/archaeology/a25395/dinosaur-fossil-map/
p1187
sg21
VFeb 24, 2017
p1188
sba(iarticle
Article
p1189
(dp1190
g3
g4
(S'\x07\xe1\x02\x18\x0e\x1c\x00\x00\x00\x00'
p1191
tp1192
Rp1193
sg8
VAn autopsy identified the cause of death as VX, a deadly nerve agent developed during the 1950s.
p1194
sg10
VThe Vicious Cold War Poison That Killed Kim Jong Un's Half Brother
p1195
sg12
Vhttp://pop.h-cdn.co/assets/17/08/640x320/landscape-1487962093-gettyimages-128633072.jpg
p1196
sg14
F1.513010282181812
sg15
VHealth
p1197
sg17
g18
sg19
Vhttps://www.popularmechanics.com/science/health/a25394/vz-kim-jong-nam-north-korea-assassination/
p1198
sg21
VFeb 24, 2017
p1199
sba(iarticle
Article
p1200
(dp1201
g3
g4
(S'\x07\xe1\x02\x18\r\r\x00\x00\x00\x00'
p1202
tp1203
Rp1204
sg8
VThe rolling turd drone blends in to the elephants environment to capture close ups.
p1205
sg10
VThis Poop-Shaped Camera On Wheels Films a Baby Elephant's Misadventure
p1206
sg12
Vhttp://pop.h-cdn.co/assets/17/08/640x320/landscape-1487958208-dungcam.jpg
p1207
sg14
F3.8399158268828297
sg15
VAnimals
p1208
sg17
g18
sg19
Vhttps://www.popularmechanics.com/science/animals/a25387/poop-camera-elephant/
p1209
sg21
VFeb 24, 2017
p1210
sba(iarticle
Article
p1211
(dp1212
g3
g4
(S'\x07\xe1\x02\x18\x0b(\x00\x00\x00\x00'
p1213
tp1214
Rp1215
sg8
VWhen The Slo Mo Guys decide to blow torch some batteries, things get dramatic.
p1216
sg10
VWatch These Batteries Explode In Super Slow Motion
p1217
sg12
Vhttp://pop.h-cdn.co/assets/17/08/480x240/landscape-1487953185-batteries.gif
p1218
sg14
F0.6942283629649256
sg15
VScience
p1219
sg17
g18
sg19
Vhttps://www.popularmechanics.com/science/a25385/watch-batteries-explode/
p1220
sg21
VFeb 24, 2017
p1221
sba(iarticle
Article
p1222
(dp1223
g3
g4
(S'\x07\xe1\x02\x17\x0f5\x00\x00\x00\x00'
p1224
tp1225
Rp1226
sg8
VDifficulty level: Hard
p1227
sg10
VSolution to Riddle of the Week #17: The Pirates and Their Booty
p1228
sg12
Vhttp://pop.h-cdn.co/assets/17/08/640x320/landscape-1487881743-pirates-coins.jpg
p1229
sg14
Nsg15
VMath
p1230
sg17
g18
sg19
Vhttps://www.popularmechanics.com/science/math/a25369/solution-to-riddle-of-the-week-17/
p1231
sg21
VFeb 23, 2017
p1232
sba(iarticle
Article
p1233
(dp1234
g3
g4
(S'\x07\xe1\x02\x17\x0f5\x00\x00\x00\x00'
p1235
tp1236
Rp1237
sg8
VDifficultly level: Hard
p1238
sg10
VRiddle of the Week #17: The Pirates and Their Booty
p1239
sg12
Vhttp://pop.h-cdn.co/assets/17/08/640x320/landscape-1487881743-pirates-coins.jpg
p1240
sg14
F0.8042129286813566
sg15
VMath
p1241
sg17
g18
sg19
Vhttps://www.popularmechanics.com/science/math/a25367/riddle-of-the-week-17/
p1242
sg21
VFeb 23, 2017
p1243
sba(iarticle
Article
p1244
(dp1245
g3
g4
(S'\x07\xe1\x02\x16\x113\x00\x00\x00\x00'
p1246
tp1247
Rp1248
sg8
VThe severe coral bleaching caused by the 2016 El Nio is likely to continue well into 2017, threatening large sections of many Pacific...
p1249
sg10
VThe Worst Coral Bleaching in History Is Entering Its Fourth Year
p1250
sg12
Vhttp://pop.h-cdn.co/assets/17/08/640x320/landscape-1487802806-gettyimages-680806389.jpg
p1251
sg14
F1.0781618603751533
sg15
VEarth
p1252
sg17
g18
sg19
Vhttps://www.popularmechanics.com/science/environment/a25356/worst-coral-bleaching-entering-fourth-year/
p1253
sg21
VFeb 22, 2017
p1254
sba(iarticle
Article
p1255
(dp1256
g3
g4
(S"\x07\xe1\x02\x16\x0f'\x00\x00\x00\x00"
p1257
tp1258
Rp1259
sg8
VThe fearsome predator has some pretty mockable forelimbs. Why exactly are the T. rex's arms so small?
p1260
sg10
VWhy T. Rex Had Such Puny Arms
p1261
sg12
Vhttp://pop.h-cdn.co/assets/17/08/640x320/landscape-1487793276-trex.jpg
p1262
sg14
F5.601161379724408
sg15
VAnimals
p1263
sg17
g18
sg19
Vhttps://www.popularmechanics.com/science/animals/a25351/why-t-rex-had-such-puny-arms/
p1264
sg21
VFeb 22, 2017
p1265
sba(iarticle
Article
p1266
(dp1267
g3
g4
(S'\x07\xe1\x02\x15\x105\x00\x00\x00\x00'
p1268
tp1269
Rp1270
sg8
VUFO researcher Dennis Balthaser is trying to preserve the history of the infamous incident in Roswell, New Mexico
p1271
sg10
VA Video Tour of Roswell With a True Believer Guide
p1272
sg12
V//pop.h-cdn.co/assets/popularmechanics/20170411174720/images/blank.png
p1273
sg14
F1.192041787380507
sg15
VScience
p1274
sg17
g18
sg19
Vhttps://www.popularmechanics.com/science/a25307/a-video-tour-of-roswell/
p1275
sg21
VFeb 21, 2017
p1276
sba(iarticle
Article
p1277
(dp1278
g3
g4
(S'\x07\xe1\x02\x15\t-\x00\x00\x00\x00'
p1279
tp1280
Rp1281
sg8
VThe space agency is testing sensors that could one day help satellites more accurately measure the world's snow-packed mountains.
p1282
sg10
VNASA Is Looking For a Better Way to Measure Snow
p1283
sg12
V//pop.h-cdn.co/assets/popularmechanics/20170411174720/images/blank.png
p1284
sg14
F0.47777687308994604
sg15
VEarth
p1285
sg17
g18
sg19
Vhttps://www.popularmechanics.com/science/environment/a25328/measure-snow-nasa-earth-science/
p1286
sg21
VFeb 21, 2017
p1287
sba(iarticle
Article
p1288
(dp1289
g3
g4
(S'\x07\xe1\x02\x13\x15"\x00\x00\x00\x00'
p1290
tp1291
Rp1292
sg8
VIt turns out that New Zealand is only a small part of Zealandia.
p1293
sg10
VThe Earth Has a Secret Hidden Continent
p1294
sg12
V//pop.h-cdn.co/assets/popularmechanics/20170411174720/images/blank.png
p1295
sg14
F3.2633807971608406
sg15
VEarth
p1296
sg17
g18
sg19
Vhttps://www.popularmechanics.com/science/environment/a25295/the-earth-has-a-secret-hidden-continent/
p1297
sg21
VFeb 19, 2017
p1298
sba(iarticle
Article
p1299
(dp1300
g3
g4
(S'\x07\xe1\x02\x13\x0b\x04\x00\x00\x00\x00'
p1301
tp1302
Rp1303
sg8
VThis is dark.
p1304
sg10
VWatch An Intense Stand-Off Between An Octopus And Crab
p1305
sg12
V//pop.h-cdn.co/assets/popularmechanics/20170411174720/images/blank.png
p1306
sg14
F2.250852633486865
sg15
VAnimals
p1307
sg17
g18
sg19
Vhttps://www.popularmechanics.com/science/animals/a25292/watch-an-intense-stand-off-between-an-octopus-and-crab/
p1308
sg21
VFeb 19, 2017
p1309
sba(iarticle
Article
p1310
(dp1311
g3
g4
(S'\x07\xe1\x02\x13\n$\x00\x00\x00\x00'
p1312
tp1313
Rp1314
sg8
VThis iceberg is actually on the small side, as far as these go.
p1315
sg10
VAn Iceberg the Size of Manhattan Just Broke Off of Antarctica
p1316
sg12
V//pop.h-cdn.co/assets/popularmechanics/20170411174720/images/blank.png
p1317
sg14
F1.867149215491827
sg15
VEarth
p1318
sg17
g18
sg19
Vhttps://www.popularmechanics.com/science/environment/a25287/an-iceberg-the-size-of-manhattan-just-broke-off-of-antarctica/
p1319
sg21
VFeb 19, 2017
p1320
sba(iarticle
Article
p1321
(dp1322
g3
g4
(S'\x07\xe1\x02\x12\n\x1b\x00\x00\x00\x00'
p1323
tp1324
Rp1325
sg8
VThe bizarre and ancient microbes and were able to exist by living on minerals such as iron and manganese.
p1326
sg10
VScientists Find 50,000 Year Old Life Forms Trapped In Mexican Cave Crystals
p1327
sg12
Vhttp://pop.h-cdn.co/assets/17/07/640x320/landscape-1487431459-extreme-life-mose.jpg
p1328
sg14
F6.282529496166948
sg15
VScience
p1329
sg17
g18
sg19
Vhttps://www.popularmechanics.com/science/a25290/life-mexican-cave-crystals/
p1330
sg21
VFeb 18, 2017
p1331
sba(iarticle
Article
p1332
(dp1333
g3
g4
(S'\x07\xe1\x02\x11\x11\x0b\x00\x00\x00\x00'
p1334
tp1335
Rp1336
sg8
VWhat more could Robert de Niro want?
p1337
sg10
VVaccines Are Safe and There Is Plenty of Proof
p1338
sg12
Vhttp://pop.h-cdn.co/assets/17/07/640x320/landscape-1487367378-gettyimages-83290870.jpg
p1339
sg14
F14.56791672456274
sg15
VHealth
p1340
sg17
g18
sg19
Vhttps://www.popularmechanics.com/science/health/a25284/vaccines-are-safe-robert-de-niro/
p1341
sg21
VFeb 17, 2017
p1342
sba(iarticle
Article
p1343
(dp1344
g3
g4
(S'\x07\xe1\x02\x11\n\x19\x00\x00\x00\x00'
p1345
tp1346
Rp1347
sg8
VA new IMAX film 'Dream Big' believes the solution to engineering's diversity problem is just waiting to be inspired.
p1348
sg10
VA Film to Help Fix Engineering's Diversity Problem
p1349
sg12
Vhttp://pop.h-cdn.co/assets/17/07/640x320/landscape-1487197832-db-16-haitibridgeaerial-2.jpg
p1350
sg14
F0.9896395321762603
sg15
VScience
p1351
sg17
g18
sg19
Vhttps://www.popularmechanics.com/science/a25248/engineering-diversity-dream-big/
p1352
sg21
VFeb 17, 2017
p1353
sba(iarticle
Article
p1354
(dp1355
g3
g4
(S'\x07\xe1\x02\x10\x115\x00\x00\x00\x00'
p1356
tp1357
Rp1358
sg8
VBoth the Neolithic and Bronze Ages are represented in the huge find.
p1359
sg10
VTreasure Trove of Bronze Age Weapons and Artifacts Discovered in Scotland
p1360
sg12
Vhttp://pop.h-cdn.co/assets/17/07/1487283412-screen-shot-2017-02-16-at-51300-pm.png
p1361
sg14
F18.360161990179225
sg15
VEarth
p1362
sg17
g18
sg19
Vhttps://www.popularmechanics.com/science/environment/a25266/archaeological-find-scotland/
p1363
sg21
VFeb 16, 2017
p1364
sba(iarticle
Article
p1365
(dp1366
g3
g4
(S"\x07\xe1\x02\x10\x10'\x00\x00\x00\x00"
p1367
tp1368
Rp1369
sg8
VA Harvard team says they hope to create a mammoth embryo within the next two years.
p1370
sg10
VScientists Are Close to Cloning a Woolly Mammoth
p1371
sg12
Vhttp://pop.h-cdn.co/assets/17/07/640x320/landscape-1487280149-gettyimages-186450165.jpg
p1372
sg14
F25.98979482960918
sg15
VAnimals
p1373
sg17
g18
sg19
Vhttps://www.popularmechanics.com/science/animals/a25263/scientists-are-close-to-cloning-a-woolly-mammoth/
p1374
sg21
VFeb 16, 2017
p1375
sba(iarticle
Article
p1376
(dp1377
g3
g4
(S'\x07\xe1\x02\x10\x0c8\x00\x00\x00\x00'
p1378
tp1379
Rp1380
sg8
V"What is this? A treadmill for ants?!"
p1381
sg10
VScientists Put Ants on Treadmills to Study Their Navigation Instincts
p1382
sg12
Vhttp://pop.h-cdn.co/assets/17/07/640x320/landscape-1487266606-screen-shot-2017-02-16-at-123633-pm.png
p1383
sg14
F0.7168442330739375
sg15
VAnimals
p1384
sg17
g18
sg19
Vhttps://www.popularmechanics.com/science/animals/a25258/scientists-put-ants-on-treadmills-to-study-their-navigation/
p1385
sg21
VFeb 16, 2017
p1386
sba(iarticle
Article
p1387
(dp1388
g3
g4
(S'\x07\xe1\x02\x10\x0c\x19\x00\x00\x00\x00'
p1389
tp1390
Rp1391
sg8
VDifficulty level: Hard
p1392
sg10
VSolution to Riddle of the Week #16: The Puzzle of 100 Hats
p1393
sg12
Vhttp://pop.h-cdn.co/assets/17/07/640x320/landscape-1487266059-red-blue-hats2-1.jpg
p1394
sg14
Nsg15
VMath
p1395
sg17
g18
sg19
Vhttps://www.popularmechanics.com/science/math/a25255/solution-to-riddle-of-the-week-16/
p1396
sg21
VFeb 16, 2017
p1397
sba(iarticle
Article
p1398
(dp1399
g3
g4
(S'\x07\xe1\x02\x10\x0c\x19\x00\x00\x00\x00'
p1400
tp1401
Rp1402
sg8
VDifficulty level: Hard
p1403
sg10
VRiddle of the Week #16: The Puzzle of 100 Hats
p1404
sg12
Vhttp://pop.h-cdn.co/assets/17/07/640x320/landscape-1487266059-red-blue-hats2-1.jpg
p1405
sg14
F0.701361941691171
sg15
VMath
p1406
sg17
g18
sg19
Vhttps://www.popularmechanics.com/science/math/a25254/riddle-of-the-week-16/
p1407
sg21
VFeb 16, 2017
p1408
sba(iarticle
Article
p1409
(dp1410
g3
g4
(S'\x07\xe1\x02\x10\x0c\x06\x00\x00\x00\x00'
p1411
tp1412
Rp1413
sg8
VIt'll have to be more than just hot.
p1414
sg10
VCan Thermite Burn a Hole Through a Frozen Lake?
p1415
sg12
Vhttp://pop.h-cdn.co/assets/17/07/640x292/gallery-1487262951-further-out.gif
p1416
sg14
Nsg15
VScience
p1417
sg17
g18
sg19
Vhttps://www.popularmechanics.com/science/a25256/thermite-vs-frozen-lake/
p1418
sg21
VFeb 16, 2017
p1419
sba(iarticle
Article
p1420
(dp1421
g3
g4
(S'\x07\xe1\x02\x10\x0b\x01\x00\x00\x00\x00'
p1422
tp1423
Rp1424
sg8
VThe Cousteau family extends its legacy of marine conservation with a little help from 3D printing.
p1425
sg10
VJacques Cousteau's Grandson Wants to Save the Ocean Floor With Synthetic Coral Reefs
p1426
sg12
Vhttp://pop.h-cdn.co/assets/17/07/640x320/landscape-1487260689-3dreef.jpg
p1427
sg14
F7.083554238927847
sg15
VEarth
p1428
sg17
g18
sg19
Vhttps://www.popularmechanics.com/science/environment/a25121/3d-printing-coral-reefs-ocean-floor/
p1429
sg21
VFeb 16, 2017
p1430
sba(iarticle
Article
p1431
(dp1432
g3
g4
(S'\x07\xe1\x02\x0f\r\r\x00\x00\x00\x00'
p1433
tp1434
Rp1435
sg8
VRemote areas like the Mariana Trench and Kermadec Trench cannot escape.
p1436
sg10
VEven the Deepest Depths of the Ocean Are Polluted
p1437
sg12
V//pop.h-cdn.co/assets/popularmechanics/20170411174720/images/blank.png
p1438
sg14
F1.6528094891855236
sg15
VEarth
p1439
sg17
g18
sg19
Vhttps://www.popularmechanics.com/science/environment/a25234/high-levels-of-pollution-in-the-mariana-trench/
p1440
sg21
VFeb 15, 2017
p1441
sba(iarticle
Article
p1442
(dp1443
g3
g4
(S'\x07\xe1\x02\x0f\n\x1b\x00\x00\x00\x00'
p1444
tp1445
Rp1446
sg8
VHere's what Indiana Jones would be looking for IRL.
p1447
sg10
VWhat's the Greatest Lost Treasure in the World?
p1448
sg12
V//pop.h-cdn.co/assets/popularmechanics/20170411174720/images/blank.png
p1449
sg14
F4.094879855087585
sg15
VArchaeology
p1450
sg17
g18
sg19
Vhttps://www.popularmechanics.com/science/archaeology/a25118/undiscovered-treasure/
p1451
sg21
VFeb 15, 2017
p1452
sba(iarticle
Article
p1453
(dp1454
g3
g4
(S'\x07\xe1\x02\x0f\n\x14\x00\x00\x00\x00'
p1455
tp1456
Rp1457
sg8
VIf you're looking for a place free of natural disasters, try one of these.
p1458
sg10
VHere's the Safest Place on Earth to Live
p1459
sg12
V//pop.h-cdn.co/assets/popularmechanics/20170411174720/images/blank.png
p1460
sg14
F0.5399447868959233
sg15
VEarth
p1461
sg17
g18
sg19
Vhttps://www.popularmechanics.com/science/environment/a25230/safest-place-on-earth/
p1462
sg21
VFeb 15, 2017
p1463
sba(iarticle
Article
p1464
(dp1465
g3
g4
(S'\x07\xe1\x02\x0e\x08\x00\x00\x00\x00\x00'
p1466
tp1467
Rp1468
sg8
VIf it gets stuck in your shoes, you might want to considering hoarding.
p1469
sg10
VThe Distinct Possibility of a Looming Sand Crisis
p1470
sg12
V//pop.h-cdn.co/assets/popularmechanics/20170411174720/images/blank.png
p1471
sg14
F1.1361841203035357
sg15
VEarth
p1472
sg17
g18
sg19
Vhttps://www.popularmechanics.com/science/environment/a25202/the-distinct-possibility-of-a-looming-sand-crisis/
p1473
sg21
VFeb 14, 2017
p1474
sba(iarticle
Article
p1475
(dp1476
g3
g4
(S'\x07\xe1\x02\r\x12"\x00\x00\x00\x00'
p1477
tp1478
Rp1479
sg8
VThe genetic modification could be used to wipe out several invasive species, but there may be potential unknown consequences.
p1480
sg10
VScientists Want to Use a 'Gene Drive' to Wipe Out Invasive Mice
p1481
sg12
V//pop.h-cdn.co/assets/popularmechanics/20170411174720/images/blank.png
p1482
sg14
F0.43904305552285505
sg15
VAnimals
p1483
sg17
g18
sg19
Vhttps://www.popularmechanics.com/science/animals/a25203/gene-drive-wipe-out-invasive-mice/
p1484
sg21
VFeb 13, 2017
p1485
sba(iarticle
Article
p1486
(dp1487
g3
g4
(S'\x07\xe1\x02\x0c\x10\x14\x00\x00\x00\x00'
p1488
tp1489
Rp1490
sg8
VMore than 650 pilot whales had stranded themselves on a New Zealand beach.
p1491
sg10
VMore Than 200 Whales Escape Tragic Mass Beaching In New Zealand
p1492
sg12
Vhttp://pop.h-cdn.co/assets/17/06/640x320/landscape-1486934135-new-zealand-whale-str-mose.jpg
p1493
sg14
Nsg15
VAnimals
p1494
sg17
g18
sg19
Vhttps://www.popularmechanics.com/science/animals/a25185/whales-new-zealand/
p1495
sg21
VFeb 12, 2017
p1496
sba(iarticle
Article
p1497
(dp1498
g3
g4
(S'\x07\xe1\x02\x0b\n\x00\x00\x00\x00\x00'
p1499
tp1500
Rp1501
sg8
VThe psychology of manipulation.
p1502
sg10
VHere's How Magic Tricks Short-Circuit Your Brain
p1503
sg12
Vhttp://pop.h-cdn.co/assets/17/06/640x320/1486582213-landscape-1486576720-screen-shot-2017-02-08-at-125818-pm.png
p1504
sg14
Nsg15
VScience
p1505
sg17
g18
sg19
Vhttps://www.popularmechanics.com/science/a25102/how-does-magic-work/
p1506
sg21
VFeb 11, 2017
p1507
sba(iarticle
Article
p1508
(dp1509
g3
g4
(S'\x07\xe1\x02\n\t"\x00\x00\x00\x00'
p1510
tp1511
Rp1512
sg8
VWho knows what you'll find in the old uranium mines?
p1513
sg10
VThree New Minerals Discovered in Utah
p1514
sg12
Vhttp://pop.h-cdn.co/assets/17/06/640x320/landscape-1486681053-screen-shot-2017-02-09-at-55657-pm.png
p1515
sg14
F2.914702626115171
sg15
VEarth
p1516
sg17
g18
sg19
Vhttps://www.popularmechanics.com/science/environment/a25163/three-new-uranium-related-minerals-discovered-in-utah/
p1517
sg21
VFeb 10, 2017
p1518
sba(iarticle
Article
p1519
(dp1520
g3
g4
(S'\x07\xe1\x02\t\x10\x00\x00\x00\x00\x00'
p1521
tp1522
Rp1523
sg8
VIt took doctors almost an hour to extract it, and yes, there's a video.
p1524
sg10
VWoman's Headache Turns Out To Be Live Cockroach in Her Skull
p1525
sg12
Vhttp://pop.h-cdn.co/assets/17/06/480x240/1486656832-landscape-1486598626-giphy.gif
p1526
sg14
F55.220114310110475
sg15
VAnimals
p1527
sg17
g18
sg19
Vhttps://www.popularmechanics.com/science/animals/a25151/womans-headache-turns-out-to-be-live-cockroach/
p1528
sg21
VFeb 9, 2017
p1529
sba(iarticle
Article
p1530
(dp1531
g3
g4
(S'\x07\xe1\x02\t\x0e\x03\x00\x00\x00\x00'
p1532
tp1533
Rp1534
sg8
VThe camera on the bot was compromised by the high levels of radiation.
p1535
sg10
VCleaner Robot Pulled From Fukushima Reactor Due to Immense Radiation
p1536
sg12
Vhttp://pop.h-cdn.co/assets/17/06/640x320/landscape-1486666647-japan-nuclear-benn-1.jpg
p1537
sg14
F2.0960133324629737
sg15
VEnergy
p1538
sg17
g18
sg19
Vhttps://www.popularmechanics.com/science/energy/a25155/cleaner-robot-pulled-from-fukushima-reactor-due-to-radiation/
p1539
sg21
VFeb 9, 2017
p1540
sba(iarticle
Article
p1541
(dp1542
g3
g4
(S'\x07\xe1\x02\t\x0b9\x00\x00\x00\x00'
p1543
tp1544
Rp1545
sg8
VDifficulty level: Moderate
p1546
sg10
VSolution to Riddle of the Week #15: A Boat, a Brick, and a Tricky Question
p1547
sg12
Vhttp://pop.h-cdn.co/assets/17/06/640x320/landscape-1486652691-brick-boat.jpg
p1548
sg14
F0.6060094985485007
sg15
VMath
p1549
sg17
g18
sg19
Vhttps://www.popularmechanics.com/science/math/a25150/solution-riddle-of-the-week-15/
p1550
sg21
VFeb 9, 2017
p1551
sba(iarticle
Article
p1552
(dp1553
g3
g4
(S'\x07\xe1\x02\t\x0b9\x00\x00\x00\x00'
p1554
tp1555
Rp1556
sg8
VDifficulty level: Moderate
p1557
sg10
VRiddle of the Week #15: A Boat, a Brick, and a Tricky Question
p1558
sg12
Vhttp://pop.h-cdn.co/assets/17/06/640x320/landscape-1486652691-brick-boat.jpg
p1559
sg14
F2.589313311979958
sg15
VMath
p1560
sg17
g18
sg19
Vhttps://www.popularmechanics.com/science/math/a25147/riddle-of-the-week-15/
p1561
sg21
VFeb 9, 2017
p1562
sba(iarticle
Article
p1563
(dp1564
g3
g4
(S'\x07\xe1\x02\x08\x10\x01\x00\x00\x00\x00'
p1565
tp1566
Rp1567
sg8
VThe beer recipe is one of the oldest known. How does it hold up to modern tastes?
p1568
sg10
VStanford Students Brew Beer from 5000-Year-Old Recipe
p1569
sg12
Vhttp://pop.h-cdn.co/assets/17/06/640x320/landscape-1486586131-gettyimages-552684221.jpg
p1570
sg14
F3.7583399278384357
sg15
VArchaeology
p1571
sg17
g18
sg19
Vhttps://www.popularmechanics.com/science/archaeology/a25134/beer-from-5000-year-old-recipe/
p1572
sg21
VFeb 8, 2017
p1573
sba(iarticle
Article
p1574
(dp1575
g3
g4
(S'\x07\xe1\x02\x08\r\x10\x00\x00\x00\x00'
p1576
tp1577
Rp1578
sg8
VThe are many more kinds of turbines than just your run-of-the-mill windmill. Here are nine wildly different ways to harness energy from the...
p1579
sg10
V9 Weird Ways We Can Harness the Wind's Energy
p1580
sg12
Vhttp://pop.h-cdn.co/assets/17/06/640x320/landscape-1486570297-bat.png
p1581
sg14
F5.098484947431316
sg15
VEnergy
p1582
sg17
g18
sg19
Vhttps://www.popularmechanics.com/science/energy/g2944/9-alternative-wind-turbine-designs/
p1583
sg21
VFeb 8, 2017
p1584
sba(iarticle
Article
p1585
(dp1586
g3
g4
(S'\x07\xe1\x02\x08\n4\x00\x00\x00\x00'
p1587
tp1588
Rp1589
sg8
VBill Nye Saves The World arrives on April 21.
p1590
sg10
VHere's the Trailer for Bill Nye's New Netflix Show
p1591
sg12
Vhttp://pop.h-cdn.co/assets/17/06/640x320/landscape-1486568670-screen-shot-2017-02-08-at-104408-am.png
p1592
sg14
F4.9150549802316945
sg15
VScience
p1593
sg17
g18
sg19
Vhttps://www.popularmechanics.com/science/a25097/heres-the-trailer-for-bill-nyes-new-netflix-show/
p1594
sg21
VFeb 8, 2017
p1595
sba(iarticle
Article
p1596
(dp1597
g3
g4
(S'\x07\xe1\x02\x07\x0f!\x00\x00\x00\x00'
p1598
tp1599
Rp1600
sg8
VThe sensor can track heart rate, blood pressure, or temperature and wirelessly transmit data, using a small voltaic cell powered by stomach...
p1601
sg10
VA Tiny Sensor Powered by Stomach Acid
p1602
sg12
V//pop.h-cdn.co/assets/popularmechanics/20170411174720/images/blank.png
p1603
sg14
F2.2026395423976557
sg15
VHealth
p1604
sg17
g18
sg19
Vhttps://www.popularmechanics.com/science/health/a25091/tiny-sensor-stomach-acid/
p1605
sg21
VFeb 7, 2017
p1606
sba(iarticle
Article
p1607
(dp1608
g3
g4
(S'\x07\xe1\x02\x07\n\x02\x00\x00\x00\x00'
p1609
tp1610
Rp1611
sg8
VUp to infinity!
p1612
sg10
VYou Can Make Any Number Out of Four 4s Because Math Is Amazing
p1613
sg12
V//pop.h-cdn.co/assets/popularmechanics/20170411174720/images/blank.png
p1614
sg14
F26.7787863042005
sg15
VMath
p1615
sg17
g18
sg19
Vhttps://www.popularmechanics.com/science/math/a25080/numberphile-four-fours/
p1616
sg21
VFeb 7, 2017
p1617
sba(iarticle
Article
p1618
(dp1619
g3
g4
(S'\x07\xe1\x02\x06\x05\x00\x00\x00\x00\x00'
p1620
tp1621
Rp1622
sg8
VSmithsonian's Nick Pyenson is bringing the world's most comprehensive marine mammal collection to the people.
p1623
sg10
VHow 3D Modeling Is Turning Ancient Whale Bones Into an Ocean of Data
p1624
sg12
V//pop.h-cdn.co/assets/popularmechanics/20170411174720/images/blank.png
p1625
sg14
F2.5166114134756987
sg15
VAnimals
p1626
sg17
g18
sg19
Vhttps://www.popularmechanics.com/science/animals/a25051/paleontology-smithsonian-3d-digitize/
p1627
sg21
VFeb 6, 2017
p1628
sba(iarticle
Article
p1629
(dp1630
g3
g4
(S'\x07\xe1\x02\x05\x10\x1e\x00\x00\x00\x00'
p1631
tp1632
Rp1633
sg8
VThe volcano is pumping out a frightening volume of lava again.
p1634
sg10
VAfter Cliff Collapse, Hawaiian Lava 'Firehose' Returns
p1635
sg12
V//pop.h-cdn.co/assets/popularmechanics/20170411174720/images/blank.png
p1636
sg14
F3.350060107030955
sg15
VEarth
p1637
sg17
g18
sg19
Vhttps://www.popularmechanics.com/science/environment/a25058/cliff-collapse-hawaiian-lava-firehose-returns/
p1638
sg21
VFeb 5, 2017
p1639
sba(iarticle
Article
p1640
(dp1641
g3
g4
(S'\x07\xe1\x02\x05\r6\x00\x00\x00\x00'
p1642
tp1643
Rp1644
sg8
VThey even have custom helmets.
p1645
sg10
VThis Man Rides His Motorcycle With His Cats
p1646
sg12
V//pop.h-cdn.co/assets/popularmechanics/20170411174720/images/blank.png
p1647
sg14
F2.8356793338646096
sg15
VAnimals
p1648
sg17
g18
sg19
Vhttps://www.popularmechanics.com/science/animals/a25057/cat-motorcycle/
p1649
sg21
VFeb 5, 2017
p1650
sba(iarticle
Article
p1651
(dp1652
g3
g4
(S'\x07\xe1\x02\x04\r\x00\x00\x00\x00\x00'
p1653
tp1654
Rp1655
sg8
VSome wholesome content for you.
p1656
sg10
VWatch These Good Folks Rescue a Moose From a Frozen Lake
p1657
sg12
Vhttp://pop.h-cdn.co/assets/17/05/640x320/1486149524-landscape-1486094365-moose.jpg
p1658
sg14
Nsg15
VAnimals
p1659
sg17
g18
sg19
Vhttps://www.popularmechanics.com/science/animals/a25047/moose-lake/
p1660
sg21
VFeb 4, 2017
p1661
sba(iarticle
Article
p1662
(dp1663
g3
g4
(S'\x07\xe1\x02\x04\x0b\x17\x00\x00\x00\x00'
p1664
tp1665
Rp1666
sg8
VThe area is still extremely dangerous, says the US Geological Survey.
p1667
sg10
VCliff Collapses At Hawaii Volcano, Stopping 'Firehose' Lava Flow
p1668
sg12
Vhttp://pop.h-cdn.co/assets/17/05/640x320/landscape-1486224992-hawaii-lava-flow-mose.jpg
p1669
sg14
F0.9918879820205394
sg15
VEarth
p1670
sg17
g18
sg19
Vhttps://www.popularmechanics.com/science/environment/a25054/cliff-hawaii-volcano-lava/
p1671
sg21
VFeb 4, 2017
p1672
sba(iarticle
Article
p1673
(dp1674
g3
g4
(S'\x07\xe1\x02\x04\x0b\n\x00\x00\x00\x00'
p1675
tp1676
Rp1677
sg8
VScientists thought the small red frog might be extinct.
p1678
sg10
VThe Cave Squeaker Frog Returns In Zimbabwe After Decades
p1679
sg12
Vhttp://pop.h-cdn.co/assets/17/05/640x320/landscape-1486224592-zimbabwe-cave-squeake-mose.jpg
p1680
sg14
F0.6053677189989429
sg15
VAnimals
p1681
sg17
g18
sg19
Vhttps://www.popularmechanics.com/science/animals/a25053/cave-squeaker-frog/
p1682
sg21
VFeb 4, 2017
p1683
sba(iarticle
Article
p1684
(dp1685
g3
g4
(S'\x07\xe1\x02\x02\x11\x12\x00\x00\x00\x00'
p1686
tp1687
Rp1688
sg8
VThe new design has a number of technologies that simply how you make a quantum computer.
p1689
sg10
VResearchers Design New Modular Quantum Computer
p1690
sg12
Vhttp://pop.h-cdn.co/assets/17/05/1486071745-qcomptuer.jpg
p1691
sg14
F0.8943957237433459
sg15
VScience
p1692
sg17
g18
sg19
Vhttps://www.popularmechanics.com/science/a25029/new-modular-quantum-computer/
p1693
sg21
VFeb 2, 2017
p1694
sba(iarticle
Article
p1695
(dp1696
g3
g4
(S'\x07\xe1\x02\x02\x0f\x14\x00\x00\x00\x00'
p1697
tp1698
Rp1699
sg8
VThe molten lava is now arching out and falling about 70 feet to the ocean below.
p1700
sg10
VMassive Lava Stream Explodes Into Ocean in Hawaii
p1701
sg12
Vhttp://pop.h-cdn.co/assets/17/05/640x320/landscape-1486066152-hawaii-lava-flow-lime.jpg
p1702
sg14
F3.1082807817135074
sg15
VEarth
p1703
sg17
g18
sg19
Vhttps://www.popularmechanics.com/science/environment/a25025/massive-lava-stream-explodes-into-ocean-in-hawaii/
p1704
sg21
VFeb 2, 2017
p1705
sba(iarticle
Article
p1706
(dp1707
g3
g4
(S'\x07\xe1\x02\x02\x0c\x0c\x00\x00\x00\x00'
p1708
tp1709
Rp1710
sg8
VThe continent broke off of Pangaea and sank into the ocean, but there's still some evidence remaining on at least one island.
p1711
sg10
VScientists Found a 'Lost' Continent in the Indian Ocean
p1712
sg12
Vhttp://pop.h-cdn.co/assets/17/05/640x320/landscape-1485987189-mauritius.jpg
p1713
sg14
F5.842023687707656
sg15
VEarth
p1714
sg17
g18
sg19
Vhttps://www.popularmechanics.com/science/environment/a25014/new-lost-continent-mauritia/
p1715
sg21
VFeb 2, 2017
p1716
sba(iarticle
Article
p1717
(dp1718
g3
g4
(S'\x07\xe1\x02\x02\x0c\x08\x00\x00\x00\x00'
p1719
tp1720
Rp1721
sg8
VThe technology could cut down on the environmental impact of paper production and make recycling paper easier.
p1722
sg10
VScientists Develop New Printing Technique Using Light
p1723
sg12
Vhttp://pop.h-cdn.co/assets/17/05/640x320/landscape-1486054473-paper.jpg
p1724
sg14
F0.7412201487529497
sg15
VScience
p1725
sg17
g18
sg19
Vhttps://www.popularmechanics.com/science/a25019/light-printing-paper/
p1726
sg21
VFeb 2, 2017
p1727
sba(iarticle
Article
p1728
(dp1729
g3
g4
(S'\x07\xe1\x02\x02\x0b(\x00\x00\x00\x00'
p1730
tp1731
Rp1732
sg8
VDifficulty level: Moderate
p1733
sg10
VRiddle of the Week #14: Elon Musk's Interview Riddle
p1734
sg12
Vhttp://pop.h-cdn.co/assets/17/05/640x320/landscape-1486049497-elan-interview-index.jpg
p1735
sg14
F3.315836091611718
sg15
VMath
p1736
sg17
g18
sg19
Vhttps://www.popularmechanics.com/science/math/a25017/riddle-of-the-week-14/
p1737
sg21
VFeb 2, 2017
p1738
sba(iarticle
Article
p1739
(dp1740
g3
g4
(S'\x07\xe1\x02\x02\x0b(\x00\x00\x00\x00'
p1741
tp1742
Rp1743
sg8
VDifficulty level: Moderate
p1744
sg10
VSolution to Riddle of the Week #14: Elon Musk's Interview Riddle
p1745
sg12
Vhttp://pop.h-cdn.co/assets/17/05/640x320/landscape-1486049497-elan-interview-index.jpg
p1746
sg14
Nsg15
VMath
p1747
sg17
g18
sg19
Vhttps://www.popularmechanics.com/science/math/a25018/solution-to-riddle-of-the-week-14/
p1748
sg21
VFeb 2, 2017
p1749
sba(iarticle
Article
p1750
(dp1751
g3
g4
(S'\x07\xe1\x02\x01\r\x10\x00\x00\x00\x00'
p1752
tp1753
Rp1754
sg8
VThe March for Science is coming this spring.
p1755
sg10
VScientists Choose a Date for Their March on Washington
p1756
sg12
Vhttp://pop.h-cdn.co/assets/17/05/1485971494-1485381027-evidence-based-science.jpg
p1757
sg14
F5.2885577665131285
sg15
VEarth
p1758
sg17
g18
sg19
Vhttps://www.popularmechanics.com/science/environment/a25005/scientists-will-march-on-washington/
p1759
sg21
VFeb 1, 2017
p1760
sba(iarticle
Article
p1761
(dp1762
g3
g4
(S'\x07\xe1\x02\x01\x08\x00\x00\x00\x00\x00'
p1763
tp1764
Rp1765
sg8
VShattering preconceived notions about the strength of wind power is a breeze.
p1766
sg10
VWind Turbines Break Energy Records
p1767
sg12
V//pop.h-cdn.co/assets/popularmechanics/20170411174720/images/blank.png
p1768
sg14
F6.351312564760583
sg15
VEnergy
p1769
sg17
g18
sg19
Vhttps://www.popularmechanics.com/science/energy/a24995/danish-wind-turbines-energy-records/
p1770
sg21
VFeb 1, 2017
p1771
sba(iarticle
Article
p1772
(dp1773
g3
g4
(S'\x07\xe1\x01\x1f\r\x11\x00\x00\x00\x00'
p1774
tp1775
Rp1776
sg8
VStatic electricity is more than rubbing your head.
p1777
sg10
VA DIY Volta Hailstorm Puts Shocking Weather Right In Your Hands
p1778
sg12
V//pop.h-cdn.co/assets/popularmechanics/20170411174720/images/blank.png
p1779
sg14
Nsg15
VEnergy
p1780
sg17
g18
sg19
Vhttps://www.popularmechanics.com/science/energy/a24984/diy-volta-hailstorm/
p1781
sg21
VJan 31, 2017
p1782
sba(iarticle
Article
p1783
(dp1784
g3
g4
(S'\x07\xe1\x01\x1e\x11;\x00\x00\x00\x00'
p1785
tp1786
Rp1787
sg8
VAn exhibit appropriately named "Dead Animal Tales."
p1788
sg10
VIll-Fated Critter Killed by LHC Is Now a Museum Exhibit
p1789
sg12
V//pop.h-cdn.co/assets/popularmechanics/20170411174720/images/blank.png
p1790
sg14
Nsg15
VScience
p1791
sg17
g18
sg19
Vhttps://www.popularmechanics.com/science/a24964/marten-cern-museum-exhibit/
p1792
sg21
VJan 30, 2017
p1793
sba(iarticle
Article
p1794
(dp1795
g3
g4
(S'\x07\xe1\x01\x1d\x08\x00\x00\x00\x00\x00'
p1796
tp1797
Rp1798
sg8
VIt's basically an album cover.
p1799
sg10
VThis Savvy Cat Is Extremely Good At Taking Selfies
p1800
sg12
V//pop.h-cdn.co/assets/popularmechanics/20170411174720/images/blank.png
p1801
sg14
F1.4682937012946908
sg15
VAnimals
p1802
sg17
g18
sg19
Vhttps://www.popularmechanics.com/science/animals/a24906/selfie-cat/
p1803
sg21
VJan 29, 2017
p1804
sba(iarticle
Article
p1805
(dp1806
g3
g4
(S'\x07\xe1\x01\x1c\x0c7\x00\x00\x00\x00'
p1807
tp1808
Rp1809
sg8
VVolcanic ash above 20,000 feet is a threat to airliners flying between Asia and North America.
p1810
sg10
VAlaskan Volcano Erupts For Second Day In A Row
p1811
sg12
V//pop.h-cdn.co/assets/popularmechanics/20170411174720/images/blank.png
p1812
sg14
F4.800992651874245
sg15
VEarth
p1813
sg17
g18
sg19
Vhttps://www.popularmechanics.com/science/environment/a24958/alaskan-volcano/
p1814
sg21
VJan 28, 2017
p1815
sba(iarticle
Article
p1816
(dp1817
g3
g4
(S'\x07\xe1\x01\x1c\x0c0\x00\x00\x00\x00'
p1818
tp1819
Rp1820
sg8
VThe crystals' patterns repeat not in space, but in time.
p1821
sg10
VScientists Create A New Kind Of Matter: Time Crystals
p1822
sg12
Vhttp://pop.h-cdn.co/assets/17/04/640x320/landscape-1485624590-crystals-cold-hoarfrost-winter-frozen-macro-1903886.jpg
p1823
sg14
F118.24425348666584
sg15
VScience
p1824
sg17
g18
sg19
Vhttps://www.popularmechanics.com/science/a24957/time-crystals/
p1825
sg21
VJan 28, 2017
p1826
sba(iarticle
Article
p1827
(dp1828
g3
g4
(S'\x07\xe1\x01\x1c\n\x00\x00\x00\x00\x00'
p1829
tp1830
Rp1831
sg8
VIt's a dream for animal-lovers
p1832
sg10
VBritain Wants Someone to Live on This Idyllic Island and Care for its Seal Pups
p1833
sg12
Vhttp://pop.h-cdn.co/assets/17/04/640x320/1485450784-landscape-1485444618-farne-islands.jpg
p1834
sg14
F3.483400070712147
sg15
VAnimals
p1835
sg17
g18
sg19
Vhttps://www.popularmechanics.com/science/animals/a24924/the-national-trust-farne-islands-ranger-job/
p1836
sg21
VJan 28, 2017
p1837
sba(iarticle
Article
p1838
(dp1839
g3
g4
(S'\x07\xe1\x01\x1b\x11\x1c\x00\x00\x00\x00'
p1840
tp1841
Rp1842
sg8
VThe new wind farm will generate enough electricity to power 50,000 homes.
p1843
sg10
VNew York to Build America's Largest Offshore Wind Farm
p1844
sg12
Vhttp://pop.h-cdn.co/assets/17/04/640x320/landscape-1485554721-gettyimages-614802014.jpg
p1845
sg14
F7.847614637222025
sg15
VEnergy
p1846
sg17
g18
sg19
Vhttps://www.popularmechanics.com/science/energy/a24954/new-york-offshore-wind-farm/
p1847
sg21
VJan 27, 2017
p1848
sba(iarticle
Article
p1849
(dp1850
g3
g4
(S'\x07\xe1\x01\x1b\x0f5\x00\x00\x00\x00'
p1851
tp1852
Rp1853
sg8
VCan you figure out how to keep the hydra from growing out of control?
p1854
sg10
VKill This Hydra's Multiplying Heads With Mathematics
p1855
sg12
Vhttp://pop.h-cdn.co/assets/17/04/640x320/landscape-1485550587-screen-shot-2017-01-27-at-35547-pm.png
p1856
sg14
F3.5579594129616217
sg15
VMath
p1857
sg17
g18
sg19
Vhttps://www.popularmechanics.com/science/math/a24950/hydra-heads-mathematics/
p1858
sg21
VJan 27, 2017
p1859
sba(iarticle
Article
p1860
(dp1861
g3
g4
(S'\x07\xe1\x01\x1b\x0e\x1e\x00\x00\x00\x00'
p1862
tp1863
Rp1864
sg8
VMetallic hydrogen could be used as semiconductors or rocket fuel. But some scientists are not convinced it was created at all.
p1865
sg10
VScientists May Have Made Metallic Hydrogen, a Potentially Game-Changing Fuel Source
p1866
sg12
Vhttp://pop.h-cdn.co/assets/17/04/640x320/landscape-1485542943-diamonds.jpg
p1867
sg14
F7.040946156921124
sg15
VScience
p1868
sg17
g18
sg19
Vhttps://www.popularmechanics.com/science/a24945/scientists-may-have-made-metallic-hydrogen/
p1869
sg21
VJan 27, 2017
p1870
sba(iarticle
Article
p1871
(dp1872
g3
g4
(S'\x07\xe1\x01\x1b\x0c&\x00\x00\x00\x00'
p1873
tp1874
Rp1875
sg8
VThis could be the first step to growing transplantable human organs in pigs.
p1876
sg10
VScientists Successfully Create Human-Pig Chimera Embryos
p1877
sg12
Vhttp://pop.h-cdn.co/assets/17/04/640x320/landscape-1485537985-131211-web.jpg
p1878
sg14
F2.3604293750437013
sg15
VScience
p1879
sg17
g18
sg19
Vhttps://www.popularmechanics.com/science/a24940/human-pig-chimeras/
p1880
sg21
VJan 27, 2017
p1881
sba(iarticle
Article
p1882
(dp1883
g3
g4
(S'\x07\xe1\x01\x1b\t+\x00\x00\x00\x00'
p1884
tp1885
Rp1886
sg8
VApproximately half the state is no longer under drought conditions.
p1887
sg10
VAt Long Last, California's Drought May Be Almost Over
p1888
sg12
Vhttp://pop.h-cdn.co/assets/17/04/640x320/1485527097-landscape-1485485205-gettyimages-471011324.jpg
p1889
sg14
F1.5169340321422007
sg15
VEarth
p1890
sg17
g18
sg19
Vhttps://www.popularmechanics.com/science/environment/a24935/california-drought-almost-over/
p1891
sg21
VJan 27, 2017
p1892
sba(iarticle
Article
p1893
(dp1894
g3
g4
(S'\x07\xe1\x01\x1a\x0e9\x00\x00\x00\x00'
p1895
tp1896
Rp1897
sg8
VDifficulty level: Hard
p1898
sg10
VSolution to Riddle of the Week #13: The Spies With Stamps on Their Heads
p1899
sg12
Vhttp://pop.h-cdn.co/assets/17/04/640x320/landscape-1485448356-stamps.jpg
p1900
sg14
Nsg15
VMath
p1901
sg17
g18
sg19
Vhttps://www.popularmechanics.com/science/math/a24926/solution-to-riddle-of-the-week-13/
p1902
sg21
VJan 26, 2017
p1903
sba(iarticle
Article
p1904
(dp1905
g3
g4
(S'\x07\xe1\x01\x1a\x0e9\x00\x00\x00\x00'
p1906
tp1907
Rp1908
sg8
VDifficulty level: Hard
p1909
sg10
VRiddle of the Week #13: The Spies With Stamps on Their Heads
p1910
sg12
Vhttp://pop.h-cdn.co/assets/17/04/640x320/landscape-1485448356-stamps.jpg
p1911
sg14
F0.4972183369604451
sg15
VMath
p1912
sg17
g18
sg19
Vhttps://www.popularmechanics.com/science/math/a24925/riddle-of-the-week-13/
p1913
sg21
VJan 26, 2017
p1914
sba(iarticle
Article
p1915
(dp1916
g3
g4
(S'\x07\xe1\x01\x19\x10;\x00\x00\x00\x00'
p1917
tp1918
Rp1919
sg8
VBecause they won't stand for "alternative facts."
p1920
sg10
VScientists Are Planning Their Own March on Washington Now
p1921
sg12
Vhttp://pop.h-cdn.co/assets/17/04/640x320/landscape-1485381027-evidence-based-science.jpg
p1922
sg14
F19.451602022447478
sg15
VScience
p1923
sg17
g18
sg19
Vhttps://www.popularmechanics.com/science/a24913/scientists-plan-march-on-washington/
p1924
sg21
VJan 25, 2017
p1925
sba(iarticle
Article
p1926
(dp1927
g3
g4
(S'\x07\xe1\x01\x18\x0e\x06\x00\x00\x00\x00'
p1928
tp1929
Rp1930
sg8
VAsking for a friend.
p1931
sg10
VHow Bad Is Swallowing Gum, Really?
p1932
sg12
V//pop.h-cdn.co/assets/popularmechanics/20170411174720/images/blank.png
p1933
sg14
F0.5987581573803494
sg15
VHealth
p1934
sg17
g18
sg19
Vhttps://www.popularmechanics.com/science/health/a24891/sean-spicer-chewing-gum/
p1935
sg21
VJan 24, 2017
p1936
sba(iarticle
Article
p1937
(dp1938
g3
g4
(S'\x07\xe1\x01\x18\r6\x00\x00\x00\x00'
p1939
tp1940
Rp1941
sg8
VThe laser can reach an average power of 1000 watts.
p1942
sg10
VScientists Build World's Most Powerful Pulse Laser
p1943
sg12
V//pop.h-cdn.co/assets/popularmechanics/20170411174720/images/blank.png
p1944
sg14
F1.863882940411312
sg15
VScience
p1945
sg17
g18
sg19
Vhttps://www.popularmechanics.com/science/a24890/most-powerful-pulse-laser/
p1946
sg21
VJan 24, 2017
p1947
sba(iarticle
Article
p1948
(dp1949
g3
g4
(S'\x07\xe1\x01\x18\x07\x15\x00\x00\x00\x00'
p1950
tp1951
Rp1952
sg8
VTwo synthetic base pairs have been added to the DNA of E. coli, and the microbes are thriving.
p1953
sg10
VNew Organisms With Synthetic DNA Could Lead to Entirely New Forms of Life
p1954
sg12
V//pop.h-cdn.co/assets/popularmechanics/20170411174720/images/blank.png
p1955
sg14
F15.766158259330625
sg15
VScience
p1956
sg17
g18
sg19
Vhttps://www.popularmechanics.com/science/a24879/organisms-synthetic-dna-new-life-forms/
p1957
sg21
VJan 24, 2017
p1958
sba(iarticle
Article
p1959
(dp1960
g3
g4
(S'\x07\xe1\x01\x17\x10\x06\x00\x00\x00\x00'
p1961
tp1962
Rp1963
sg8
VThe practice keeps dangerous levels of snow from accumulating.
p1964
sg10
VIn Canada, Troops Fire Howitzers at Mountains in the Name of Avalanche Safety
p1965
sg12
V//pop.h-cdn.co/assets/popularmechanics/20170411174720/images/blank.png
p1966
sg14
F11.18152914917234
sg15
VEarth
p1967
sg17
g18
sg19
Vhttps://www.popularmechanics.com/science/environment/a24873/canadian-troops-battle-avalanches-with-howitzers/
p1968
sg21
VJan 23, 2017
p1969
sba(iarticle
Article
p1970
(dp1971
g3
g4
(S'\x07\xe1\x01\x17\x0e&\x00\x00\x00\x00'
p1972
tp1973
Rp1974
sg8
VThe new camera can capture billions of frames per second.
p1975
sg10
VScientists Film Sonic Boom Made of Lasers With High-Speed Camera
p1976
sg12
V//pop.h-cdn.co/assets/popularmechanics/20170411174720/images/blank.png
p1977
sg14
F0.6816075249967377
sg15
VScience
p1978
sg17
g18
sg19
Vhttps://www.popularmechanics.com/science/a24872/new-camera-laser-sonic-boom/
p1979
sg21
VJan 23, 2017
p1980
sba(iarticle
Article
p1981
(dp1982
g3
g4
(S'\x07\xe1\x01\x15\t\x00\x00\x00\x00\x00'
p1983
tp1984
Rp1985
sg8
VAs you do.
p1986
sg10
VOh, Just a Massive Alligator Casually Taking a Stroll in the Park
p1987
sg12
Vhttp://pop.h-cdn.co/assets/17/03/640x320/1484663803-landscape-1484600863-alligator.jpg
p1988
sg14
Nsg15
VAnimals
p1989
sg17
g18
sg19
Vhttps://www.popularmechanics.com/science/animals/a24788/giant-alligator/
p1990
sg21
VJan 21, 2017
p1991
sba(iarticle
Article
p1992
(dp1993
g3
g4
(S'\x07\xe1\x01\x14\r,\x00\x00\x00\x00'
p1994
tp1995
Rp1996
sg8
VThey'll share one dome, and one bathroom.
p1997
sg10
VSix Earth-Bound Adventurers Start Simulated Stay on Mars
p1998
sg12
Vhttp://pop.h-cdn.co/assets/17/03/640x320/landscape-1484937194-hawaii-mars-simulatio-lime.jpg
p1999
sg14
F0.518740488288
sg15
VScience
p2000
sg17
g18
sg19
Vhttps://www.popularmechanics.com/science/a24851/mars-simulation-2017/
p2001
sg21
VJan 20, 2017
p2002
sba(iarticle
Article
p2003
(dp2004
g3
g4
(S'\x07\xe1\x01\x14\r&\x00\x00\x00\x00'
p2005
tp2006
Rp2007
sg8
VThe incoming administration has removed any references to climate change, replacing it with a promise to "take advantage" of fossil fuels...
p2008
sg10
VClimate Change Information Has Been Deleted From the White House Website
p2009
sg12
Vhttp://pop.h-cdn.co/assets/17/03/640x320/landscape-1484937149-gettyimages-57105244.jpg
p2010
sg14
F46.46840962393384
sg15
VEarth
p2011
sg17
g18
sg19
Vhttps://www.popularmechanics.com/science/environment/a24849/trump-deletes-climate-change-info/
p2012
sg21
VJan 20, 2017
p2013
sba(iarticle
Article
p2014
(dp2015
g3
g4
(S'\x07\xe1\x01\x14\x08\n\x00\x00\x00\x00'
p2016
tp2017
Rp2018
sg8
VComing to an undisclosed Midwestern supermarket near you.
p2019
sg10
VGenetically Modified Apples That Won't Go Brown Will Be Sold in America
p2020
sg12
Vhttp://pop.h-cdn.co/assets/17/03/1484868066-screen-shot-2017-01-19-at-61855-pm.png
p2021
sg14
F5.088193837666844
sg15
VHealth
p2022
sg17
g18
sg19
Vhttps://www.popularmechanics.com/science/health/a24839/these-genetically-modified-apples/
p2023
sg21
VJan 20, 2017
p2024
sba(iarticle
Article
p2025
(dp2026
g3
g4
(S'\x07\xe1\x01\x13\x11\x13\x00\x00\x00\x00'
p2027
tp2028
Rp2029
sg8
VDifficulty level: Hard
p2030
sg10
VSolution to Riddle of the Week #12: Licking Frogs
p2031
sg12
Vhttp://pop.h-cdn.co/assets/17/03/640x320/landscape-1484864321-frog-lick.jpg
p2032
sg14
Nsg15
VMath
p2033
sg17
g18
sg19
Vhttps://www.popularmechanics.com/science/math/a24832/solution-to-riddle-of-the-week-12/
p2034
sg21
VJan 19, 2017
p2035
sba(iarticle
Article
p2036
(dp2037
g3
g4
(S'\x07\xe1\x01\x13\x11\x13\x00\x00\x00\x00'
p2038
tp2039
Rp2040
sg8
VDifficulty level: Hard
p2041
sg10
VRiddle of the Week #12: Licking Frogs
p2042
sg12
Vhttp://pop.h-cdn.co/assets/17/03/640x320/landscape-1484864321-frog-lick.jpg
p2043
sg14
F0.9102346742149381
sg15
VMath
p2044
sg17
g18
sg19
Vhttps://www.popularmechanics.com/science/math/a24826/riddle-of-the-week-12/
p2045
sg21
VJan 19, 2017
p2046
sba(iarticle
Article
p2047
(dp2048
g3
g4
(S'\x07\xe1\x01\x13\n\x15\x00\x00\x00\x00'
p2049
tp2050
Rp2051
sg8
VRescue workers with heavy vehicles are attempting to reach the buried hotel.
p2052
sg10
VAvalanche Engulfs Hotel in Italy Leaving 30 People Missing
p2053
sg12
Vhttp://pop.h-cdn.co/assets/17/03/640x320/landscape-1484838963-aptopix-italy-quake-a-benn.jpg
p2054
sg14
F0.8326857835632284
sg15
VEarth
p2055
sg17
g18
sg19
Vhttps://www.popularmechanics.com/science/environment/news/a24823/avalance-italy-hotel-30-missing/
p2056
sg21
VJan 19, 2017
p2057
sba(iarticle
Article
p2058
(dp2059
g3
g4
(S'\x07\xe1\x01\x12\x0b\x02\x00\x00\x00\x00'
p2060
tp2061
Rp2062
sg8
V"We're undergoing big changes," a top scientist said.
p2063
sg10
V2016 Was Officially the Hottest Year on Record
p2064
sg12
Vhttp://pop.h-cdn.co/assets/17/03/640x320/1484754878-gettyimages-86006751-1484754864.jpg
p2065
sg14
F0.5494254866753191
sg15
VEarth
p2066
sg17
g18
sg19
Vhttps://www.popularmechanics.com/science/environment/a24809/2016-hottest-year-on-record/
p2067
sg21
VJan 18, 2017
p2068
sba(iarticle
Article
p2069
(dp2070
g3
g4
(S'\x07\xe1\x01\x12\t\x1d\x00\x00\x00\x00'
p2071
tp2072
Rp2073
sg8
V"A Fitbit is a toy compared with this."
p2074
sg10
VThe Connected Heart Texts Your Doc When Something's Wrong
p2075
sg12
Vhttp://pop.h-cdn.co/assets/17/03/640x320/landscape-1484749555-connected-heart.jpg
p2076
sg14
F1.1825710091925197
sg15
VHealth
p2077
sg17
g18
sg19
Vhttps://www.popularmechanics.com/science/health/a24391/connected-heart/
p2078
sg21
VJan 18, 2017
p2079
sba(iarticle
Article
p2080
(dp2081
g3
g4
(S'\x07\xe1\x01\x12\x08\x00\x00\x00\x00\x00'
p2082
tp2083
Rp2084
sg8
VFor effective home security, get some plants with a little bit of attitude.
p2085
sg10
VThese 9 Plants Will Mess You Up
p2086
sg12
Vhttp://pop.h-cdn.co/assets/17/03/640x320/landscape-1484680577-gleditschia-triacanthos-espinas.jpg
p2087
sg14
F10.551783794927058
sg15
VEarth
p2088
sg17
g18
sg19
Vhttps://www.popularmechanics.com/science/environment/g2924/9-plants-deadly/
p2089
sg21
VJan 18, 2017
p2090
sba(iarticle
Article
p2091
(dp2092
g3
g4
(S'\x07\xe1\x01\x11\x117\x00\x00\x00\x00'
p2093
tp2094
Rp2095
sg8
VOn the surface, an equation modelling population growth might not seem to have anything to do with fractals. But fractals are everywhere,...
p2096
sg10
VHow the Science of Population Growth Is Related to a Famous Fractal
p2097
sg12
V//pop.h-cdn.co/assets/popularmechanics/20170411174720/images/blank.png
p2098
sg14
F0.4509345859617723
sg15
VMath
p2099
sg17
g18
sg19
Vhttps://www.popularmechanics.com/science/math/a24804/population-growth-mandelbrot-set/
p2100
sg21
VJan 17, 2017
p2101
sba(iarticle
Article
p2102
(dp2103
g3
g4
(S'\x07\xe1\x01\x11\x11\x1f\x00\x00\x00\x00'
p2104
tp2105
Rp2106
sg8
VIt's not Photoshop.
p2107
sg10
VHow Trees Can Cast Blue Shadows in the Winter
p2108
sg12
V//pop.h-cdn.co/assets/popularmechanics/20170411174720/images/blank.png
p2109
sg14
Nsg15
VEarth
p2110
sg17
g18
sg19
Vhttps://www.popularmechanics.com/science/environment/a24802/trees-blue-shadows/
p2111
sg21
VJan 17, 2017
p2112
sba(iarticle
Article
p2113
(dp2114
g3
g4
(S'\x07\xe1\x01\x11\r)\x00\x00\x00\x00'
p2115
tp2116
Rp2117
sg8
VBefore there were CAT scans, there was the amazing artistic work of Santiago Ramn y Cajal, the father of modern neuroscience.
p2118
sg10
VWhen Neurologists Were Also Artists
p2119
sg12
V//pop.h-cdn.co/assets/popularmechanics/20170411174720/images/blank.png
p2120
sg14
F0.8269315878150196
sg15
VHealth
p2121
sg17
g18
sg19
Vhttps://www.popularmechanics.com/science/health/g2923/brain-scan-cajal/
p2122
sg21
VJan 17, 2017
p2123
sba(iarticle
Article
p2124
(dp2125
g3
g4
(S'\x07\xe1\x01\x11\r\x04\x00\x00\x00\x00'
p2126
tp2127
Rp2128
sg8
VUp to an inch of ice accumulated in some towns.
p2129
sg10
V14 Incredible Photos From the Midwestern Ice Storm
p2130
sg12
V//pop.h-cdn.co/assets/popularmechanics/20170411174720/images/blank.png
p2131
sg14
Nsg15
VEarth
p2132
sg17
g18
sg19
Vhttps://www.popularmechanics.com/science/environment/a24791/ice-storm-jupiter-2017-photos/
p2133
sg21
VJan 17, 2017
p2134
sba(iarticle
Article
p2135
(dp2136
g3
g4
(S'\x07\xe1\x01\x11\x0c&\x00\x00\x00\x00'
p2137
tp2138
Rp2139
sg8
VThe Petra Nova project can collect more than 5,000 tons of CO2 per day.
p2140
sg10
VThe World's Largest Carbon Capture Tech Is Now Online
p2141
sg12
V//pop.h-cdn.co/assets/popularmechanics/20170411174720/images/blank.png
p2142
sg14
F1.9669870423614502
sg15
VGreen Tech
p2143
sg17
g18
sg19
Vhttps://www.popularmechanics.com/science/green-tech/a24794/petra-nova-online/
p2144
sg21
VJan 17, 2017
p2145
sba(iarticle
Article
p2146
(dp2147
g3
g4
(S'\x07\xe1\x01\x11\x08\x04\x00\x00\x00\x00'
p2148
tp2149
Rp2150
sg8
VWe may not have found the plane, but we've learned plenty about the sea just from the search.
p2151
sg10
VFailed MH370 Search Reveals the Secrets of the Sea Floor
p2152
sg12
Vhttp://pop.h-cdn.co/assets/17/03/640x320/landscape-1484658033-malaysia-missing-plan-lime.jpg
p2153
sg14
F1.16949381758009
sg15
VEarth
p2154
sg17
g18
sg19
Vhttps://www.popularmechanics.com/science/environment/a24787/failed-mh370-search-sea-floor-secrets/
p2155
sg21
VJan 17, 2017
p2156
sba(iarticle
Article
p2157
(dp2158
g3
g4
(S'\x07\xe1\x01\x10\x0b\x02\x00\x00\x00\x00'
p2159
tp2160
Rp2161
sg8
VIt ain't easy.
p2162
sg10
VWhat Smashing a Lock Frozen in Liquid Nitrogen Looks Like
p2163
sg12
Vhttp://pop.h-cdn.co/assets/17/03/640x320/landscape-1484581578-lock.jpg
p2164
sg14
F1.334791365197102
sg15
VScience
p2165
sg17
g18
sg19
Vhttps://www.popularmechanics.com/science/a24776/lock-liquid-nitrogen/
p2166
sg21
VJan 16, 2017
p2167
sba(iarticle
Article
p2168
(dp2169
g3
g4
(S'\x07\xe1\x01\x10\n\x04\x00\x00\x00\x00'
p2170
tp2171
Rp2172
sg8
VNot creepy at all.
p2173
sg10
VA New Startup Offers to Replace Your Blood With the Blood of the Young
p2174
sg12
Vhttp://pop.h-cdn.co/assets/17/03/640x320/landscape-1484578923-gettyimages-545247995.jpg
p2175
sg14
F3.040815346866344
sg15
VHealth
p2176
sg17
g18
sg19
Vhttps://www.popularmechanics.com/science/health/a24774/blood-startup/
p2177
sg21
VJan 16, 2017
p2178
sba(iarticle
Article
p2179
(dp2180
g3
g4
(S'\x07\xe1\x01\x10\t8\x00\x00\x00\x00'
p2181
tp2182
Rp2183
sg8
VThe offenders managed to skate by without a fine.
p2184
sg10
VLibrary Book Called 'Forty Minutes Late' Returned 100 Years Late
p2185
sg12
Vhttp://pop.h-cdn.co/assets/17/03/640x320/landscape-1484577720-old-book.jpg
p2186
sg14
F2.347705520294459
sg15
VScience
p2187
sg17
g18
sg19
Vhttps://www.popularmechanics.com/science/news/a24775/library-book-100-year/
p2188
sg21
VJan 16, 2017
p2189
sba(iarticle
Article
p2190
(dp2191
g3
g4
(S'\x07\xe1\x01\r\x0f.\x00\x00\x00\x00'
p2192
tp2193
Rp2194
sg8
VBats' vector cells keep track of their angle and distance from a target.
p2195
sg10
VScientists Find the Elusive Neurons Give Bats Their Internal GPS
p2196
sg12
Vhttp://pop.h-cdn.co/assets/16/45/640x320/landscape-1478891458-mexican-free-tailed-bat-8006856842.jpg
p2197
sg14
Nsg15
VAnimals
p2198
sg17
g18
sg19
Vhttps://www.popularmechanics.com/science/animals/a24760/bat-neurons-discovered/
p2199
sg21
VJan 13, 2017
p2200
sba(iarticle
Article
p2201
(dp2202
g3
g4
(S'\x07\xe1\x01\r\x0e4\x00\x00\x00\x00'
p2203
tp2204
Rp2205
sg8
VThis rare phenomenon is truly a sight to behold.
p2206
sg10
VMysterious Light Pillars Captured in Stunning Photos
p2207
sg12
Vhttp://pop.h-cdn.co/assets/17/02/640x320/1484333829-landscape-1484325943-yn8arvx.jpg
p2208
sg14
F8.36310386320979
sg15
VEarth
p2209
sg17
g18
sg19
Vhttps://www.popularmechanics.com/science/environment/a24755/mysterious-light-pillars-ontario-canada/
p2210
sg21
VJan 13, 2017
p2211
sba(iarticle
Article
p2212
(dp2213
g3
g4
(S'\x07\xe1\x01\r\x0e\x1e\x00\x00\x00\x00'
p2214
tp2215
Rp2216
sg8
VThe tech uses chemical reactions to trap and release heat at will.
p2217
sg10
VNew Technology Stores Extra Heat From Summer to Use in Winter
p2218
sg12
Vhttp://pop.h-cdn.co/assets/17/02/640x320/landscape-1484248353-gettyimages-183268830.jpg
p2219
sg14
F2.1708570490679717
sg15
VGreen Tech
p2220
sg17
g18
sg19
Vhttps://www.popularmechanics.com/science/green-tech/a24735/store-heat-summer-winter/
p2221
sg21
VJan 13, 2017
p2222
sba(iarticle
Article
p2223
(dp2224
g3
g4
(S'\x07\xe1\x01\r\x07#\x00\x00\x00\x00'
p2225
tp2226
Rp2227
sg8
VThe hypothetical spacecraft engine has made waves for seeming to violate the laws of physics. What's actually going on?
p2228
sg10
VThe Science Behind the Impossible EM Drive
p2229
sg12
Vhttp://pop.h-cdn.co/assets/17/02/640x320/landscape-1484263675-emdrive.gif
p2230
sg14
F60.12742978782928
sg15
VScience
p2231
sg17
g18
sg19
Vhttps://www.popularmechanics.com/science/a24745/science-behind-em-drive/
p2232
sg21
VJan 13, 2017
p2233
sba(iarticle
Article
p2234
(dp2235
g3
g4
(S'\x07\xe1\x01\x0c\x10\x06\x00\x00\x00\x00'
p2236
tp2237
Rp2238
sg8
VAnd it's made out of less than 200 hundred atoms.
p2239
sg10
VScientists Have Tied the Tightest Knot of All Time
p2240
sg12
Vhttp://pop.h-cdn.co/assets/17/02/640x320/landscape-1484252541-step-out-of-the-sun.gif
p2241
sg14
F1.2844357470398202
sg15
VScience
p2242
sg17
g18
sg19
Vhttps://www.popularmechanics.com/science/a24740/tightest-knot-all-time-manchester-university/
p2243
sg21
VJan 12, 2017
p2244
sba(iarticle
Article
p2245
(dp2246
g3
g4
(S'\x07\xe1\x01\x0c\x0f:\x00\x00\x00\x00'
p2247
tp2248
Rp2249
sg8
VDifficulty level: Moderate
p2250
sg10
VRiddle of the Week #11: The Three-Way Showdown
p2251
sg12
Vhttp://pop.h-cdn.co/assets/17/02/640x320/landscape-1484254599-truel.jpg
p2252
sg14
F0.6372041928533705
sg15
VMath
p2253
sg17
g18
sg19
Vhttps://www.popularmechanics.com/science/math/a24727/riddle-of-the-week-11/
p2254
sg21
VJan 12, 2017
p2255
sba(iarticle
Article
p2256
(dp2257
g3
g4
(S'\x07\xe1\x01\x0c\x0f9\x00\x00\x00\x00'
p2258
tp2259
Rp2260
sg8
VDifficulty level: Moderate
p2261
sg10
VSolution to Riddle of the Week #11: The Truel
p2262
sg12
V//pop.h-cdn.co/assets/popularmechanics/20170411174720/images/blank.png
p2263
sg14
Nsg15
VMath
p2264
sg17
g18
sg19
Vhttps://www.popularmechanics.com/science/math/a24730/solution-riddle-of-the-week-11/
p2265
sg21
VJan 12, 2017
p2266
sba(iarticle
Article
p2267
(dp2268
g3
g4
(S'\x07\xe1\x01\x0c\x0f\x0c\x00\x00\x00\x00'
p2269
tp2270
Rp2271
sg8
VTesting wearable sensors as check engine light for health.
p2272
sg10
VSoon Wearable Tech Will Tell You When Its Time to Visit the Doctor
p2273
sg12
V//pop.h-cdn.co/assets/popularmechanics/20170411174720/images/blank.png
p2274
sg14
F0.6668610449263761
sg15
VHealth
p2275
sg17
g18
sg19
Vhttps://www.popularmechanics.com/science/health/a24737/wearable-sensors-diagnosis/
p2276
sg21
VJan 12, 2017
p2277
sba(iarticle
Article
p2278
(dp2279
g3
g4
(S'\x07\xe1\x01\x0c\r\x12\x00\x00\x00\x00'
p2280
tp2281
Rp2282
sg8
VIf you cheat a little bit.
p2283
sg10
VTurns Out You Can Fight Fire with Fire After All
p2284
sg12
V//pop.h-cdn.co/assets/popularmechanics/20170411174720/images/blank.png
p2285
sg14
Nsg15
VScience
p2286
sg17
g18
sg19
Vhttps://www.popularmechanics.com/science/a24732/fight-fire-with-fire-ge/
p2287
sg21
VJan 12, 2017
p2288
sba(iarticle
Article
p2289
(dp2290
g3
g4
(S'\x07\xe1\x01\x0c\x0c\x06\x00\x00\x00\x00'
p2291
tp2292
Rp2293
sg8
VOkay, but really: do frogs fart?
p2294
sg10
VNew Database Answers Your Burning Question: Does That Animal Fart?
p2295
sg12
V//pop.h-cdn.co/assets/popularmechanics/20170411174720/images/blank.png
p2296
sg14
F0.37773407645272356
sg15
VAnimals
p2297
sg17
g18
sg19
Vhttps://www.popularmechanics.com/science/animals/a24726/does-that-animal-fart/
p2298
sg21
VJan 12, 2017
p2299
sba(iarticle
Article
p2300
(dp2301
g3
g4
(S'\x07\xe1\x01\x0c\x085\x00\x00\x00\x00'
p2302
tp2303
Rp2304
sg8
VThey won't make you Houdini but they're still pretty cool.
p2305
sg10
VCool Tricks You Can Do With Just Static Electricity
p2306
sg12
V//pop.h-cdn.co/assets/popularmechanics/20170411174720/images/blank.png
p2307
sg14
F0.814025860441581
sg15
VEarth
p2308
sg17
g18
sg19
Vhttps://www.popularmechanics.com/science/environment/a24721/static-electricity-party-tricks/
p2309
sg21
VJan 12, 2017
p2310
sba(iarticle
Article
p2311
(dp2312
g3
g4
(S'\x07\xe1\x01\x0b\x10\x19\x00\x00\x00\x00'
p2313
tp2314
Rp2315
sg8
VReceiving information from other cars about upcoming traffic and road conditions can dramatically increase fuel efficiency for plug-in...
p2316
sg10
VA Simple Software Update Could Make Hybrids Way More Efficient
p2317
sg12
Vhttp://pop.h-cdn.co/assets/17/02/640x320/landscape-1484169275-gettyimages-555000501.jpg
p2318
sg14
F0.3845394946688169
sg15
VGreen Tech
p2319
sg17
g18
sg19
Vhttps://www.popularmechanics.com/science/green-tech/a24718/hybrid-software-fuel-efficiency/
p2320
sg21
VJan 11, 2017
p2321
sba(iarticle
Article
p2322
(dp2323
g3
g4
(S'\x07\xe1\x01\x0b\x0c:\x00\x00\x00\x00'
p2324
tp2325
Rp2326
sg8
VThe rusty patched bumblebee was listed as endangered this week. Here's what you can do to help.
p2327
sg10
VFirst Species of Bumblebee Is At Risk Of Extinction In The U.S.
p2328
sg12
Vhttp://pop.h-cdn.co/assets/17/02/640x320/1484156975-landscape-1484154237-gettyimages-92400162.jpg
p2329
sg14
F0.4627634824820979
sg15
VAnimals
p2330
sg17
g18
sg19
Vhttps://www.popularmechanics.com/science/animals/a24708/first-species-of-bumblebee-is-at-risk-of-extinction-in-the-united-states/
p2331
sg21
VJan 11, 2017
p2332
sba(iarticle
Article
p2333
(dp2334
g3
g4
(S'\x07\xe1\x01\x0b\x0c7\x00\x00\x00\x00'
p2335
tp2336
Rp2337
sg8
VOnce its fully up and running, the Gigafactory will build 35 gigawatt-hours of batteries per year, enough for 500,000 Model 3 cars.
p2338
sg10
VTesla's New Gigafactory Will Have the World's Largest Rooftop Solar Farm
p2339
sg12
Vhttp://pop.h-cdn.co/assets/17/01/640x320/landscape-1483568499-giga-jan2017.jpg
p2340
sg14
F1.4079536297892867
sg15
VEnergy
p2341
sg17
g18
sg19
Vhttps://www.popularmechanics.com/science/energy/a24709/tesla-gigafactory-solar-farm/
p2342
sg21
VJan 11, 2017
p2343
sba(iarticle
Article
p2344
(dp2345
g3
g4
(S'\x07\xe1\x01\n\x0e3\x00\x00\x00\x00'
p2346
tp2347
Rp2348
sg8
VLike a centrifuge, but made of paper.
p2349
sg10
VThe 20-Cent Paper Centrifuge Could Revolutionize Field Medicine
p2350
sg12
Vhttp://pop.h-cdn.co/assets/17/02/640x320/landscape-1484074874-screen-shot-2017-01-10-at-20051-pm.png
p2351
sg14
F1.2294447407707227
sg15
VHealth
p2352
sg17
g18
sg19
Vhttps://www.popularmechanics.com/science/health/a24689/meet-the-paperfuge-which-could-revolutionize-field-medicine/
p2353
sg21
VJan 10, 2017
p2354
sba(iarticle
Article
p2355
(dp2356
g3
g4
(S'\x07\xe1\x01\t\r\t\x00\x00\x00\x00'
p2357
tp2358
Rp2359
sg8
VTwo scientific institutions are fighting over who owns one of the more promising discoveries of the century.
p2360
sg10
VThe Patent Fight Over CRISPR Hinges on a Microscopic Detail
p2361
sg12
Vhttp://pop.h-cdn.co/assets/17/02/640x320/landscape-1483983803-gettyimages-680792157.jpg
p2362
sg14
F0.4538601753455168
sg15
VHealth
p2363
sg17
g18
sg19
Vhttps://www.popularmechanics.com/science/health/a24670/crispr-patent-fight-explainer/
p2364
sg21
VJan 9, 2017
p2365
sba(iarticle
Article
p2366
(dp2367
g3
g4
(S'\x07\xe1\x01\t\x0b\x03\x00\x00\x00\x00'
p2368
tp2369
Rp2370
sg8
VPunching something through the gut is never good for long-term health.
p2371
sg10
VIconic 'Tunnel Tree' Collapses After Winter Storm
p2372
sg12
Vhttp://pop.h-cdn.co/assets/17/02/640x320/landscape-1483976632-calaverastreetunnel1.jpg
p2373
sg14
F7.747702938164287
sg15
VEarth
p2374
sg17
g18
sg19
Vhttps://www.popularmechanics.com/science/environment/a24665/iconic-tunnel-tree-collapses-after-winter-storm/
p2375
sg21
VJan 9, 2017
p2376
sba(iarticle
Article
p2377
(dp2378
g3
g4
(S'\x07\xe1\x01\x07\r!\x00\x00\x00\x00'
p2379
tp2380
Rp2381
sg8
VScientists have figured out how to make scars heal like regular skin.
p2382
sg10
VScar-Free Healing Is Almost Here
p2383
sg12
Vhttp://pop.h-cdn.co/assets/17/01/640x320/landscape-1483812831-knee.jpg
p2384
sg14
F3.647924809584444
sg15
VScience
p2385
sg17
g18
sg19
Vhttps://www.popularmechanics.com/science/a24656/scar-free-healing/
p2386
sg21
VJan 7, 2017
p2387
sba(iarticle
Article
p2388
(dp2389
g3
g4
(S'\x07\xe1\x01\x07\x0c\n\x00\x00\x00\x00'
p2390
tp2391
Rp2392
sg8
VIt's happening with surprising speed.
p2393
sg10
VScientists Find Plants And Animals Are Evolving To Live In Cities
p2394
sg12
Vhttp://pop.h-cdn.co/assets/17/01/640x320/landscape-1483808227-1280px-dandelion-ground-level.JPG
p2395
sg14
F3.4186546544347842
sg15
VScience
p2396
sg17
g18
sg19
Vhttps://www.popularmechanics.com/science/a24654/cities-evolution/
p2397
sg21
VJan 7, 2017
p2398
sba(iarticle
Article
p2399
(dp2400
g3
g4
(S'\x07\xe1\x01\x06\x10\x15\x00\x00\x00\x00'
p2401
tp2402
Rp2403
sg8
VWhoops.
p2404
sg10
VLondon Has Already Surpassed Its Air Pollution Limit for 2017
p2405
sg12
Vhttp://pop.h-cdn.co/assets/17/01/640x320/landscape-1483734966-gettyimages-502847299.jpg
p2406
sg14
F1.1181815542023217
sg15
VEarth
p2407
sg17
g18
sg19
Vhttps://www.popularmechanics.com/science/environment/a24647/london-surpassed-air-pollution-limit-2017/
p2408
sg21
VJan 6, 2017
p2409
sba(iarticle
Article
p2410
(dp2411
g3
g4
(S'\x07\xe1\x01\x06\x0b\x1d\x00\x00\x00\x00'
p2412
tp2413
Rp2414
sg8
VThis strange perceptual condition is still largely a mystery.
p2415
sg10
VWoman Lost Synesthesia After Being Hit By Lightning, Then Regained it
p2416
sg12
Vhttp://pop.h-cdn.co/assets/17/01/640x320/landscape-1483717266-lightning-1056419-1920.jpg
p2417
sg14
F0.3939017735674846
sg15
VScience
p2418
sg17
g18
sg19
Vhttps://www.popularmechanics.com/science/a24638/synaesthesia-lightning/
p2419
sg21
VJan 6, 2017
p2420
sba(iarticle
Article
p2421
(dp2422
g3
g4
(S'\x07\xe1\x01\x05\x12\x14\x00\x00\x00\x00'
p2423
tp2424
Rp2425
sg8
VGiant lasers and vacuum tunnels aren't easy to work with.
p2426
sg10
VWhy It Is So Dang Hard to Detect Gravitational Waves
p2427
sg12
V//pop.h-cdn.co/assets/popularmechanics/20170411174720/images/blank.png
p2428
sg14
F0.6241839582954369
sg15
VScience
p2429
sg17
g18
sg19
Vhttps://www.popularmechanics.com/science/a24634/difficult-detect-gravitational-waves/
p2430
sg21
VJan 5, 2017
p2431
sba(iarticle
Article
p2432
(dp2433
g3
g4
(S'\x07\xe1\x01\x05\x11\x01\x00\x00\x00\x00'
p2434
tp2435
Rp2436
sg8
VThe new method of carbon capture is cheaper, cleaner, and more efficient than the industry standard.
p2437
sg10
VA Coal Plant in India Is Turning CO2 Into Baking Soda
p2438
sg12
V//pop.h-cdn.co/assets/popularmechanics/20170411174720/images/blank.png
p2439
sg14
F5.670654447296665
sg15
VGreen Tech
p2440
sg17
g18
sg19
Vhttps://www.popularmechanics.com/science/green-tech/a24631/india-co2-baking-soda/
p2441
sg21
VJan 5, 2017
p2442
sba(iarticle
Article
p2443
(dp2444
g3
g4
(S'\x07\xe1\x01\x05\x0c1\x00\x00\x00\x00'
p2445
tp2446
Rp2447
sg8
VA new report from the American Cancer Society shows that fewer people are getting cancer, and fewer people are dying from it, than at any...
p2448
sg10
VCancer Rates Have Dropped 25 Percent in the Past 25 Years
p2449
sg12
V//pop.h-cdn.co/assets/popularmechanics/20170411174720/images/blank.png
p2450
sg14
F0.7437016955688527
sg15
VHealth
p2451
sg17
g18
sg19
Vhttps://www.popularmechanics.com/science/health/a24625/cancer-rates-have-dropped/
p2452
sg21
VJan 5, 2017
p2453
sba(iarticle
Article
p2454
(dp2455
g3
g4
(S'\x07\xe1\x01\x05\x0b3\x00\x00\x00\x00'
p2456
tp2457
Rp2458
sg8
VNot the most scenic morning commute.
p2459
sg10
VWatch the Morning Smog Roll Into Beijing
p2460
sg12
V//pop.h-cdn.co/assets/popularmechanics/20170411174720/images/blank.png
p2461
sg14
F0.46463958326992044
sg15
VEarth
p2462
sg17
g18
sg19
Vhttps://www.popularmechanics.com/science/environment/a24623/morning-smog-beijing/
p2463
sg21
VJan 5, 2017
p2464
sba(iarticle
Article
p2465
(dp2466
g3
g4
(S'\x07\xe1\x01\x05\x0b#\x00\x00\x00\x00'
p2467
tp2468
Rp2469
sg8
VDifficulty level: Hard
p2470
sg10
VSolution to Riddle of the Week #10: Einstein's Riddle
p2471
sg12
V//pop.h-cdn.co/assets/popularmechanics/20170411174720/images/blank.png
p2472
sg14
F0.2601713031009662
sg15
VMath
p2473
sg17
g18
sg19
Vhttps://www.popularmechanics.com/science/math/a24621/solution-riddle-of-the-week-10-einsteins-riddle/
p2474
sg21
VJan 5, 2017
p2475
sba(iarticle
Article
p2476
(dp2477
g3
g4
(S'\x07\xe1\x01\x05\x0b#\x00\x00\x00\x00'
p2478
tp2479
Rp2480
sg8
VDifficulty level: Hard
p2481
sg10
VRiddle of the Week #10: Einstein's Riddle
p2482
sg12
Vhttp://pop.h-cdn.co/assets/17/01/640x320/landscape-1483628434-einstein-lede1.jpg
p2483
sg14
F6.51357440977776
sg15
VMath
p2484
sg17
g18
sg19
Vhttps://www.popularmechanics.com/science/math/a24620/riddle-of-the-week-10-einsteins-riddle/
p2485
sg21
VJan 5, 2017
p2486
sba(iarticle
Article
p2487
(dp2488
g3
g4
(S'\x07\xe1\x01\x05\x0b\x18\x00\x00\x00\x00'
p2489
tp2490
Rp2491
sg8
VThe favorite "fact" of climate change deniers turns out to be completely false, obviously.
p2492
sg10
VThere Was Never a "Pause" In Global Warming, Scientists Say
p2493
sg12
Vhttp://pop.h-cdn.co/assets/16/29/640x320/landscape-1469107024-screen-shot-2016-07-21-at-91243-am.png
p2494
sg14
F1.7467404813064076
sg15
VEarth
p2495
sg17
g18
sg19
Vhttps://www.popularmechanics.com/science/environment/a24622/no-pause-in-global-warming/
p2496
sg21
VJan 5, 2017
p2497
sba(iarticle
Article
p2498
(dp2499
g3
g4
(S'\x07\xe1\x01\x03\x10\x1c\x00\x00\x00\x00'
p2500
tp2501
Rp2502
sg8
VOne lake lies on the border between three nations, but where that border actually lies is an open question.
p2503
sg10
VThis Lake Belongs to No Country
p2504
sg12
Vhttp://pop.h-cdn.co/assets/17/01/640x320/landscape-1483477107-gettyimages-688026581.jpg
p2505
sg14
F0.46610277511186354
sg15
VEarth
p2506
sg17
g18
sg19
Vhttps://www.popularmechanics.com/science/environment/a24595/lake-constance-borders/
p2507
sg21
VJan 3, 2017
p2508
sba(iarticle
Article
p2509
(dp2510
g3
g4
(S'\x07\xe1\x01\x02\n\x00\x00\x00\x00\x00'
p2511
tp2512
Rp2513
sg8
VIt's scary to consider just how large these killer waves could grow if the conditions were just right.
p2514
sg10
VTsunamis Can Get Much, Much Bigger Than You Think
p2515
sg12
Vhttp://pop.h-cdn.co/assets/16/52/640x320/landscape-1483129703-tsuami.jpg
p2516
sg14
F1.662339574391463
sg15
VEarth
p2517
sg17
g18
sg19
Vhttps://www.popularmechanics.com/science/environment/a24574/tsunamis-can-get-much-much-bigger-than-you-think/
p2518
sg21
VJan 2, 2017
p2519
sba(iarticle
Article
p2520
(dp2521
g3
g4
(S'\x07\xe0\x0c\x1f\n\x00\x00\x00\x00\x00'
p2522
tp2523
Rp2524
sg8
V"We are a bit vulnerable right now."
p2525
sg10
VBill Gates Is Really Worried About a New Epidemic
p2526
sg12
Vhttp://pop.h-cdn.co/assets/16/52/640x320/1483118858-landscape-1483111191-gettyimages-462343504.jpg
p2527
sg14
F1.8280664025729165
sg15
VHealth
p2528
sg17
g18
sg19
Vhttps://www.popularmechanics.com/science/health/a24565/bill-gates-flu-epidemic/
p2529
sg21
VDec 31, 2016
p2530
sba(iarticle
Article
p2531
(dp2532
g3
g4
(S'\x07\xe0\x0c\x1e\r\x0e\x00\x00\x00\x00'
p2533
tp2534
Rp2535
sg8
VThe Chinese government will end the processing and selling of ivory and ivory products by the end of March as it phases out the legal trade.
p2536
sg10
VChina Says It Will Stop Trading Ivory in 2017
p2537
sg12
Vhttp://pop.h-cdn.co/assets/16/38/640x320/landscape-1474654490-press-download-05.jpg
p2538
sg14
F2.1840089067836352
sg15
VAnimals
p2539
sg17
g18
sg19
Vhttps://www.popularmechanics.com/science/animals/a24566/china-says-it-will-stop-trading-ivory-in-2017/
p2540
sg21
VDec 30, 2016
p2541
sba(iarticle
Article
p2542
(dp2543
g3
g4
(S'\x07\xe0\x0c\x1e\x0b\x04\x00\x00\x00\x00'
p2544
tp2545
Rp2546
sg8
VBullet vs. hardened glass, at high speed.
p2547
sg10
VWatch This Insanely Strong Glass Drop Shot With a .22 at 150,000 Frames per Second
p2548
sg12
Vhttp://pop.h-cdn.co/assets/16/52/640x320/landscape-1483113030-animation-50.gif
p2549
sg14
F0.6423628916473982
sg15
VScience
p2550
sg17
g18
sg19
Vhttps://www.popularmechanics.com/science/a24554/prince-ruperts-drop-shot/
p2551
sg21
VDec 30, 2016
p2552
sba(iarticle
Article
p2553
(dp2554
g3
g4
(S'\x07\xe0\x0c\x1d\x12$\x00\x00\x00\x00'
p2555
tp2556
Rp2557
sg8
VWhat happens to white silver and black lead during displacement reactions.
p2558
sg10
VWatching Silver Grow at the Micro Scale Is Magic
p2559
sg12
Vhttp://pop.h-cdn.co/assets/16/52/640x320/landscape-1483046817-screen-shot-2016-12-29-at-32737-pm.png
p2560
sg14
F0.481067629989748
sg15
VEarth
p2561
sg17
g18
sg19
Vhttps://www.popularmechanics.com/science/environment/a24547/watching-silver-grow-at-the-micro-scale-is-magic/
p2562
sg21
VDec 29, 2016
p2563
sba(iarticle
Article
p2564
(dp2565
g3
g4
(S'\x07\xe0\x0c\x1d\r\t\x00\x00\x00\x00'
p2566
tp2567
Rp2568
sg8
VInvestigators can't find a cause for the hundreds of blackbirds that fell out of the sky around Thanksgiving.
p2569
sg10
VNo One Knows Why Dead Birds Are Falling From the Sky in New Jersey
p2570
sg12
Vhttp://pop.h-cdn.co/assets/16/52/640x320/landscape-1483032843-gettyimages-157692653.jpg
p2571
sg14
F1.2832138217873759
sg15
VAnimals
p2572
sg17
g18
sg19
Vhttps://www.popularmechanics.com/science/animals/a24540/blackbird-die-off-new-jersey/
p2573
sg21
VDec 29, 2016
p2574
sba(iarticle
Article
p2575
(dp2576
g3
g4
(S'\x07\xe0\x0c\x1d\n\x19\x00\x00\x00\x00'
p2577
tp2578
Rp2579
sg8
VDifficulty level: Moderate
p2580
sg10
VSolution to Riddle of the Week #9: Heads or Tails?
p2581
sg12
Vhttp://pop.h-cdn.co/assets/16/52/640x320/landscape-1483021394-headsandtails.jpeg
p2582
sg14
Nsg15
VMath
p2583
sg17
g18
sg19
Vhttps://www.popularmechanics.com/science/math/a24535/solution-to-riddle-of-the-week-9/
p2584
sg21
VDec 29, 2016
p2585
sba(iarticle
Article
p2586
(dp2587
g3
g4
(S'\x07\xe0\x0c\x1d\n\x19\x00\x00\x00\x00'
p2588
tp2589
Rp2590
sg8
VDifficulty level: Moderate
p2591
sg10
VRiddle of the Week #9: Heads or Tails?
p2592
sg12
V//pop.h-cdn.co/assets/popularmechanics/20170411174720/images/blank.png
p2593
sg14
F0.3226650062392197
sg15
VMath
p2594
sg17
g18
sg19
Vhttps://www.popularmechanics.com/science/math/a24534/riddle-of-the-week-9/
p2595
sg21
VDec 29, 2016
p2596
sba(iarticle
Article
p2597
(dp2598
g3
g4
(S'\x07\xe0\x0c\x1b\x10\x00\x00\x00\x00\x00'
p2599
tp2600
Rp2601
sg8
VThe laws of physics specifically prohibit duplication.
p2602
sg10
VWhy Creating a Perfect Clone Is Impossible
p2603
sg12
V//pop.h-cdn.co/assets/popularmechanics/20170411174720/images/blank.png
p2604
sg14
F0.3263556976911666
sg15
VScience
p2605
sg17
g18
sg19
Vhttps://www.popularmechanics.com/science/a24510/cloning-is-impossible/
p2606
sg21
VDec 27, 2016
p2607
sba(iarticle
Article
p2608
(dp2609
g3
g4
(S'\x07\xe0\x0c\x1b\x0c6\x00\x00\x00\x00'
p2610
tp2611
Rp2612
sg8
VExperts call for the cheetah to be listed as "endangered" as humans have pushed this fast cat off of 91 percent of its historic habitat.
p2613
sg10
VThe World's Fastest Land Animal Now Runs From Extinction
p2614
sg12
V//pop.h-cdn.co/assets/popularmechanics/20170411174720/images/blank.png
p2615
sg14
F0.39462439440833597
sg15
VAnimals
p2616
sg17
g18
sg19
Vhttps://www.popularmechanics.com/science/animals/a24506/cheetahs-endangered-conservation/
p2617
sg21
VDec 27, 2016
p2618
sba(iarticle
Article
p2619
(dp2620
g3
g4
(S'\x07\xe0\x0c\x1b\t*\x00\x00\x00\x00'
p2621
tp2622
Rp2623
sg8
VVera Rubin found that galaxies don't quite rotate the way they were predicted, and that lent support to the theory that some other force...
p2624
sg10
VVera Rubin, the Mother of Dark Matter, Dies at 88
p2625
sg12
V//pop.h-cdn.co/assets/popularmechanics/20170411174720/images/blank.png
p2626
sg14
F2.279351244174649
sg15
VEnergy
p2627
sg17
g18
sg19
Vhttps://www.popularmechanics.com/science/energy/a24501/vera-rubin-the-mother-of-dark-matter-dies-at-88/
p2628
sg21
VDec 27, 2016
p2629
sba(iarticle
Article
p2630
(dp2631
g3
g4
(S'\x07\xe0\x0c\x19\x0b\x00\x00\x00\x00\x00'
p2632
tp2633
Rp2634
sg8
VNot good.
p2635
sg10
VWhat Are the Chances of Finding Two Identical Snowflakes?
p2636
sg12
V//pop.h-cdn.co/assets/popularmechanics/20170411174720/images/blank.png
p2637
sg14
F1.7784040154564598
sg15
VScience
p2638
sg17
g18
sg19
Vhttps://www.popularmechanics.com/science/a24480/chances-of-finding-two-identical-snowflakes/
p2639
sg21
VDec 25, 2016
p2640
sba(iarticle
Article
p2641
(dp2642
g3
g4
(S'\x07\xe0\x0c\x17\x0f(\x00\x00\x00\x00'
p2643
tp2644
Rp2645
sg8
VIt's unclear if the new tool will last through the changing administrations.
p2646
sg10
VNASA's New Tool Lets Us Watch Glaciers Melt in Near Real-Time
p2647
sg12
Vhttp://pop.h-cdn.co/assets/16/10/640x320/landscape-1457712690-gettyimages-453807412.jpg
p2648
sg14
F0.8883261046975259
sg15
VEarth
p2649
sg17
g18
sg19
Vhttps://www.popularmechanics.com/science/environment/a24497/nasa-is-now-tracking-worldwide-glaciers-with-greater-accuracy-than-ever/
p2650
sg21
VDec 23, 2016
p2651
sba(iarticle
Article
p2652
(dp2653
g3
g4
(S'\x07\xe0\x0c\x17\x0c9\x00\x00\x00\x00'
p2654
tp2655
Rp2656
sg8
VA novel method of testing got a "100%" success rate.
p2657
sg10
VWe Finally Have an Extremely Effective Ebola Vaccine
p2658
sg12
Vhttp://pop.h-cdn.co/assets/16/51/1482514177-491388428.jpg
p2659
sg14
F0.6469568442959617
sg15
VHealth
p2660
sg17
g18
sg19
Vhttps://www.popularmechanics.com/science/health/a24496/who-announces-effective-ebola-vaccine/
p2661
sg21
VDec 23, 2016
p2662
sba(iarticle
Article
p2663
(dp2664
g3
g4
(S'\x07\xe0\x0c\x16\x10\x10\x00\x00\x00\x00'
p2665
tp2666
Rp2667
sg8
VThe last time this volcano was active, it erupted for a week.
p2668
sg10
VA Long-Dormant Supervolcano May Be Waking Up
p2669
sg12
Vhttp://pop.h-cdn.co/assets/16/51/640x320/landscape-1482440704-gettyimages-540858197.jpg
p2670
sg14
F3.1953549007461377
sg15
VEarth
p2671
sg17
g18
sg19
Vhttps://www.popularmechanics.com/science/environment/a24475/campi-flegrei-supervolcano/
p2672
sg21
VDec 22, 2016
p2673
sba(iarticle
Article
p2674
(dp2675
g3
g4
(S'\x07\xe0\x0c\x16\r\x11\x00\x00\x00\x00'
p2676
tp2677
Rp2678
sg8
VIt's still unknown whether the investment will pay off.
p2679
sg10
VThe World's First Solar Road Is Open in France
p2680
sg12
Vhttp://pop.h-cdn.co/assets/16/51/640x320/landscape-1482426866-road.jpg
p2681
sg14
F6.548714817192852
sg15
VGreen Tech
p2682
sg17
g18
sg19
Vhttps://www.popularmechanics.com/science/green-tech/a24468/first-solar-road/
p2683
sg21
VDec 22, 2016
p2684
sba(iarticle
Article
p2685
(dp2686
g3
g4
(S'\x07\xe0\x0c\x16\x0b\x19\x00\x00\x00\x00'
p2687
tp2688
Rp2689
sg8
VDifficulty level: Easy
p2690
sg10
VSolution to Riddle of the Week #8: The 'Die Hard' Jug Problem
p2691
sg12
Vhttp://pop.h-cdn.co/assets/16/51/640x320/landscape-1482418139-jugs.jpeg
p2692
sg14
Nsg15
VMath
p2693
sg17
g18
sg19
Vhttps://www.popularmechanics.com/science/math/a24464/solution-to-riddle-of-the-week-8/
p2694
sg21
VDec 22, 2016
p2695
sba(iarticle
Article
p2696
(dp2697
g3
g4
(S'\x07\xe0\x0c\x16\x0b\x18\x00\x00\x00\x00'
p2698
tp2699
Rp2700
sg8
VDifficulty level: Easy
p2701
sg10
VRiddle of the Week #8: The 'Die Hard' Jug Problem
p2702
sg12
Vhttp://pop.h-cdn.co/assets/16/51/640x320/landscape-1482418139-jugs.jpeg
p2703
sg14
F1.3483622075282224
sg15
VMath
p2704
sg17
g18
sg19
Vhttps://www.popularmechanics.com/science/math/a24463/riddle-of-the-week-8/
p2705
sg21
VDec 22, 2016
p2706
sba(iarticle
Article
p2707
(dp2708
g3
g4
(S'\x07\xe0\x0c\x16\n3\x00\x00\x00\x00'
p2709
tp2710
Rp2711
sg8
VFrom Memphis and Ur to New York City and Delhi, with lots of cities in between.
p2712
sg10
VOne GIF Shows How the World's Biggest City Shifted Throughout History
p2713
sg12
Vhttp://pop.h-cdn.co/assets/16/51/640x320/landscape-1482421837-roman-c.jpg
p2714
sg14
Nsg15
VArchaeology
p2715
sg17
g18
sg19
Vhttps://www.popularmechanics.com/science/archaeology/a24465/one-gif-worlds-biggest-city/
p2716
sg21
VDec 22, 2016
p2717
sba(iarticle
Article
p2718
(dp2719
g3
g4
(S'\x07\xe0\x0c\x15\x0f6\x00\x00\x00\x00'
p2720
tp2721
Rp2722
sg8
VThe reactor has been plagued by malfunctions, incidents, and corruption since it went online.
p2723
sg10
VJapan Is Scrapping Its $9 Billion Experimental Reactor
p2724
sg12
Vhttp://pop.h-cdn.co/assets/16/51/640x320/landscape-1482352574-reactor.JPG
p2725
sg14
F1.257743089601812
sg15
VEnergy
p2726
sg17
g18
sg19
Vhttps://www.popularmechanics.com/science/energy/a24458/japan-scrapping-experimental-reactor/
p2727
sg21
VDec 21, 2016
p2728
sba(iarticle
Article
p2729
(dp2730
g3
g4
(S'\x07\xe0\x0c\x15\x0f1\x00\x00\x00\x00'
p2731
tp2732
Rp2733
sg8
VSadly, seat warmers are not included.
p2734
sg10
VSo How Do Toilets Work in Antarctica?
p2735
sg12
Vhttp://pop.h-cdn.co/assets/16/51/1482351855-screen-shot-2016-12-21-at-32324-pm.png
p2736
sg14
F0.6533545055986488
sg15
VGreen Tech
p2737
sg17
g18
sg19
Vhttps://www.popularmechanics.com/science/green-tech/a24457/toilets-in-antarctica/
p2738
sg21
VDec 21, 2016
p2739
sba(iarticle
Article
p2740
(dp2741
g3
g4
(S'\x07\xe0\x0c\x15\x0c\x1b\x00\x00\x00\x00'
p2742
tp2743
Rp2744
sg8
VBe afraid.
p2745
sg10
VFifteen Years of Deadly Earthquakes in One Video
p2746
sg12
Vhttp://pop.h-cdn.co/assets/16/51/640x320/landscape-1482340263-earthquake.gif
p2747
sg14
F2.186232960063992
sg15
VEarth
p2748
sg17
g18
sg19
Vhttps://www.popularmechanics.com/science/environment/a24449/15-years-of-earthquakes/
p2749
sg21
VDec 21, 2016
p2750
sba(iarticle
Article
p2751
(dp2752
g3
g4
(S'\x07\xe0\x0c\x15\n\r\x00\x00\x00\x00'
p2753
tp2754
Rp2755
sg8
VMaybe these should just stay in the deep sea.
p2756
sg10
VRussian Deep-Sea Fisherman Brings Back Creatures From the Bowels of Hell
p2757
sg12
V//pop.h-cdn.co/assets/popularmechanics/20170411174720/images/blank.png
p2758
sg14
F9.78167745012953
sg15
VAnimals
p2759
sg17
g18
sg19
Vhttps://www.popularmechanics.com/science/animals/a24443/deep-sea-fisherman/
p2760
sg21
VDec 21, 2016
p2761
sba(iarticle
Article
p2762
(dp2763
g3
g4
(S'\x07\xe0\x0c\x15\t,\x00\x00\x00\x00'
p2764
tp2765
Rp2766
sg8
VKing County Superior Court Judge Hollis Hill on Monday allowed the young petitioners to move ahead in their case against the state.
p2767
sg10
V8 Seattle Kids Are Suing the State for Doing Nothing About Climate Change
p2768
sg12
V//pop.h-cdn.co/assets/popularmechanics/20170411174720/images/blank.png
p2769
sg14
F4.0994801601222655
sg15
VEarth
p2770
sg17
g18
sg19
Vhttps://www.popularmechanics.com/science/environment/a24441/kids-seattle-climate-change-lawsuit/
p2771
sg21
VDec 21, 2016
p2772
sba(iarticle
Article
p2773
(dp2774
g3
g4
(S'\x07\xe0\x0c\x14\x0c6\x00\x00\x00\x00'
p2775
tp2776
Rp2777
sg8
VThe discovery was made by the European Space Agency's Swarm satellites, which have been studying the Earth's magnetic field for the past...
p2778
sg10
VEarth's Molten Core Has Its Own Jet Stream
p2779
sg12
V//pop.h-cdn.co/assets/popularmechanics/20170411174720/images/blank.png
p2780
sg14
F2.322635249845239
sg15
VEarth
p2781
sg17
g18
sg19
Vhttps://www.popularmechanics.com/science/environment/a24425/core-jet-stream/
p2782
sg21
VDec 20, 2016
p2783
sba(iarticle
Article
p2784
(dp2785
g3
g4
(S'\x07\xe0\x0c\x14\n\x0e\x00\x00\x00\x00'
p2786
tp2787
Rp2788
sg8
VYou might be able to hear an explosion in a vacuum, but not how you'd think.
p2789
sg10
VYou Can Hear an Explosion in a Vacuum Chamber, But Why?
p2790
sg12
V//pop.h-cdn.co/assets/popularmechanics/20170411174720/images/blank.png
p2791
sg14
F0.4366189024278972
sg15
VScience
p2792
sg17
g18
sg19
Vhttps://www.popularmechanics.com/science/a24382/sounds-in-vacuum-chamber/
p2793
sg21
VDec 20, 2016
p2794
sba(iarticle
Article
p2795
(dp2796
g3
g4
(S'\x07\xe0\x0c\x13\x12\x14\x00\x00\x00\x00'
p2797
tp2798
Rp2799
sg8
VIt doesn't stand a chance.
p2800
sg10
VWatch a Giant Fake Diamond Give Up the Ghost to Molten Copper
p2801
sg12
V//pop.h-cdn.co/assets/popularmechanics/20170411174720/images/blank.png
p2802
sg14
Nsg15
VScience
p2803
sg17
g18
sg19
Vhttps://www.popularmechanics.com/science/a24405/fake-diamond-molten-copper/
p2804
sg21
VDec 19, 2016
p2805
sba(iarticle
Article
p2806
(dp2807
g3
g4
(S'\x07\xe0\x0c\x13\x11\x01\x00\x00\x00\x00'
p2808
tp2809
Rp2810
sg8
VThe constant e is one of the most important numbers in all of mathematics. But where does it come from? And why is it important?
p2811
sg10
VWhat's the Big Deal With the Mathematical Constant "e"?
p2812
sg12
Vhttp://pop.h-cdn.co/assets/16/51/640x320/landscape-1482183533-e.gif
p2813
sg14
F42.60621011192225
sg15
VMath
p2814
sg17
g18
sg19
Vhttps://www.popularmechanics.com/science/math/a24383/mathematical-constant-e/
p2815
sg21
VDec 19, 2016
p2816
sba(iarticle
Article
p2817
(dp2818
g3
g4
(S'\x07\xe0\x0c\x13\r\n\x00\x00\x00\x00'
p2819
tp2820
Rp2821
sg8
VThere's beauty in everything\u2014even a polar vortex.
p2822
sg10
VCheck Out This Magical Michigan Lighthouse Encased in Ice
p2823
sg12
Vhttp://pop.h-cdn.co/assets/16/51/640x320/1482170647-landscape-1482166974-screen-shot-2016-12-19-at-120122-pm.png
p2824
sg14
F1.421054084113415
sg15
VEarth
p2825
sg17
g18
sg19
Vhttps://www.popularmechanics.com/science/environment/a24378/frozen-michigan-lighthouse/
p2826
sg21
VDec 19, 2016
p2827
sba(iarticle
Article
p2828
(dp2829
g3
g4
(S'\x07\xe0\x0c\x13\x0c+\x00\x00\x00\x00'
p2830
tp2831
Rp2832
sg8
VUsing a laser to excite the antiparticles (positrons and antiprotons), scientists can begin to measure the atomic structure of some of the...
p2833
sg10
VScientists Measure Antimatter for the First Time
p2834
sg12
Vhttp://pop.h-cdn.co/assets/16/51/640x320/landscape-1482165106-cern-anti-materia.jpg
p2835
sg14
F9.632814897490144
sg15
VScience
p2836
sg17
g18
sg19
Vhttps://www.popularmechanics.com/science/a24374/scientists-measure-antimatter/
p2837
sg21
VDec 19, 2016
p2838
sba(iarticle
Article
p2839
(dp2840
g3
g4
(S'\x07\xe0\x0c\x13\x0c\x18\x00\x00\x00\x00'
p2841
tp2842
Rp2843
sg8
VLas Vegas is now the largest city in the country to run entirely on renewable energy.
p2844
sg10
VLas Vegas' City Government Is Now Powered Entirely by Renewable Energy
p2845
sg12
Vhttp://pop.h-cdn.co/assets/16/51/640x320/landscape-1482168481-gettyimages-615655618.jpg
p2846
sg14
F471.1552923451293
sg15
VEnergy
p2847
sg17
g18
sg19
Vhttps://www.popularmechanics.com/science/energy/a24372/las-vegas-renewable-energy/
p2848
sg21
VDec 19, 2016
p2849
sba(iarticle
Article
p2850
(dp2851
g3
g4
(S'\x07\xe0\x0c\x12\n;\x00\x00\x00\x00'
p2852
tp2853
Rp2854
sg8
VHe was 96.
p2855
sg10
VHenry Heimlich, Inventor Of The Life-Saving Maneuver, Is Dead
p2856
sg12
Vhttp://pop.h-cdn.co/assets/16/50/640x320/landscape-1482076657-obit-heimlich-mose.jpg
p2857
sg14
F1.5042213649066047
sg15
VHealth
p2858
sg17
g18
sg19
Vhttps://www.popularmechanics.com/science/health/a24364/henry-heimlich-rip/
p2859
sg21
VDec 18, 2016
p2860
sba(iarticle
Article
p2861
(dp2862
g3
g4
(S'\x07\xe0\x0c\x10\x0f"\x00\x00\x00\x00'
p2863
tp2864
Rp2865
sg8
VThe drop in price is driven by investments from developing nations.
p2866
sg10
VSolar Power Is Now The World's Cheapest Energy
p2867
sg12
Vhttp://pop.h-cdn.co/assets/16/50/640x320/landscape-1481919535-solar-panels-871284454772qkb9.jpg
p2868
sg14
F320.11190549637496
sg15
VGreen Tech
p2869
sg17
g18
sg19
Vhttps://www.popularmechanics.com/science/green-tech/a24357/solar-power-cheapest-energy/
p2870
sg21
VDec 16, 2016
p2871
sba(iarticle
Article
p2872
(dp2873
g3
g4
(S'\x07\xe0\x0c\x10\r\x17\x00\x00\x00\x00'
p2874
tp2875
Rp2876
sg8
VThey used genetic modification to "reset" the mice to a younger state.
p2877
sg10
VScientists Lengthen Mice's Lifespan By 30 Percent
p2878
sg12
Vhttp://pop.h-cdn.co/assets/16/50/640x320/landscape-1481910342-humanstemcell.JPG
p2879
sg14
F3.042030183459923
sg15
VHealth
p2880
sg17
g18
sg19
Vhttps://www.popularmechanics.com/science/health/a24353/mice-aging/
p2881
sg21
VDec 16, 2016
p2882
sba(iarticle
Article
p2883
(dp2884
g3
g4
(S'\x07\xe0\x0c\x10\x0c\x11\x00\x00\x00\x00'
p2885
tp2886
Rp2887
sg8
VThis one weird trick will ensure your survival for 500 million years!
p2888
sg10
VCreepy Velvet Worms Entangle Their Prey In Slime
p2889
sg12
Vhttp://pop.h-cdn.co/assets/16/50/640x320/landscape-1481906940-velvet.gif
p2890
sg14
Nsg15
VAnimals
p2891
sg17
g18
sg19
Vhttps://www.popularmechanics.com/science/animals/a24348/velvet-worms/
p2892
sg21
VDec 16, 2016
p2893
sba(iarticle
Article
p2894
(dp2895
g3
g4
(S'\x07\xe0\x0c\x10\t#\x00\x00\x00\x00'
p2896
tp2897
Rp2898
sg8
VCoast Guard Cutter Polar Star's job is only getting more important.
p2899
sg10
VThe Coast Guard's Only Antarctic Icebreaker Needs a Tune Up
p2900
sg12
Vhttp://pop.h-cdn.co/assets/16/50/640x320/landscape-1481898673-icebreaker-antarctica-lime.jpg
p2901
sg14
F0.524647740207287
sg15
VEarth
p2902
sg17
g18
sg19
Vhttps://www.popularmechanics.com/science/environment/a24344/coast-guard-cutter-polar-star-tune-up/
p2903
sg21
VDec 16, 2016
p2904
sba(iarticle
Article
p2905
(dp2906
g3
g4
(S'\x07\xe0\x0c\x0f\r\x06\x00\x00\x00\x00'
p2907
tp2908
Rp2909
sg8
VA six-story building rising and falling in the ocean.
p2910
sg10
VScientist Confirm the Largest Wave Ever Recorded
p2911
sg12
Vhttp://pop.h-cdn.co/assets/16/50/1481823597-524045704.jpg
p2912
sg14
F2.1468874570343868
sg15
VEarth
p2913
sg17
g18
sg19
Vhttps://www.popularmechanics.com/science/environment/a24326/worlds-largest-wave-recorded-near-scotland/
p2914
sg21
VDec 15, 2016
p2915
sba(iarticle
Article
p2916
(dp2917
g3
g4
(S'\x07\xe0\x0c\x0f\x0c8\x00\x00\x00\x00'
p2918
tp2919
Rp2920
sg8
VBut it is possible, even in your own backyard.
p2921
sg10
VIt's So Fascinatingly Complicated to Mine Aluminum
p2922
sg12
V//pop.h-cdn.co/assets/popularmechanics/20170411174720/images/blank.png
p2923
sg14
F0.7078123400650106
sg15
VScience
p2924
sg17
g18
sg19
Vhttps://www.popularmechanics.com/science/a24327/codys-lab-aluminum-dirt/
p2925
sg21
VDec 15, 2016
p2926
sba(iarticle
Article
p2927
(dp2928
g3
g4
(S'\x07\xe0\x0c\x0f\n\x00\x00\x00\x00\x00'
p2929
tp2930
Rp2931
sg8
VDifficulty level: Hard
p2932
sg10
VSolution to Riddle of the Week #7: Flying Around the World
p2933
sg12
V//pop.h-cdn.co/assets/popularmechanics/20170411174720/images/blank.png
p2934
sg14
Nsg15
VMath
p2935
sg17
g18
sg19
Vhttps://www.popularmechanics.com/science/math/a24313/solution-riddle-of-the-week-7/
p2936
sg21
VDec 15, 2016
p2937
sba(iarticle
Article
p2938
(dp2939
g3
g4
(S'\x07\xe0\x0c\x0f\n\x00\x00\x00\x00\x00'
p2940
tp2941
Rp2942
sg8
VDifficulty level: Hard
p2943
sg10
VRiddle of the Week #7: Flying Around the World
p2944
sg12
V//pop.h-cdn.co/assets/popularmechanics/20170411174720/images/blank.png
p2945
sg14
F0.4429339010552508
sg15
VMath
p2946
sg17
g18
sg19
Vhttps://www.popularmechanics.com/science/math/a24309/riddle-of-the-week-7/
p2947
sg21
VDec 15, 2016
p2948
sba(iarticle
Article
p2949
(dp2950
g3
g4
(S'\x07\xe0\x0c\x0e\x10/\x00\x00\x00\x00'
p2951
tp2952
Rp2953
sg8
VAn ambitious plan for a city that needs environmental help.
p2954
sg10
VCan Jet Engines Blow Away a City's Smog?
p2955
sg12
V//pop.h-cdn.co/assets/popularmechanics/20170411174720/images/blank.png
p2956
sg14
F0.5950323279611262
sg15
VGreen Tech
p2957
sg17
g18
sg19
Vhttps://www.popularmechanics.com/science/green-tech/a24312/jet-engines-hoping-to-knock-smog-out-of-dehli/
p2958
sg21
VDec 14, 2016
p2959
sba(iarticle
Article
p2960
(dp2961
g3
g4
(S'\x07\xe0\x0c\x0e\x0c&\x00\x00\x00\x00'
p2962
tp2963
Rp2964
sg8
VThe animation relies on over two years of data from a NASA satellite.
p2965
sg10
VStunning NASA Visualization Shows How CO2 Moves Around the Earth
p2966
sg12
V//pop.h-cdn.co/assets/popularmechanics/20170411174720/images/blank.png
p2967
sg14
F0.4861949554951008
sg15
VEarth
p2968
sg17
g18
sg19
Vhttps://www.popularmechanics.com/science/environment/a24304/nasa-visualization-earth-carbon-dioxide/
p2969
sg21
VDec 14, 2016
p2970
sba(iarticle
Article
p2971
(dp2972
g3
g4
(S'\x07\xe0\x0c\x0c\x12\x11\x00\x00\x00\x00'
p2973
tp2974
Rp2975
sg8
VThis interactive map will tell you the cheapest option for power in your part of the country.
p2976
sg10
VThe Cheapest Way to Generate Power, County by County
p2977
sg12
Vhttp://pop.h-cdn.co/assets/16/50/640x320/landscape-1481583450-map.png
p2978
sg14
F4.530149844434718
sg15
VEnergy
p2979
sg17
g18
sg19
Vhttps://www.popularmechanics.com/science/energy/a24272/cheapest-power-plant-every-county/
p2980
sg21
VDec 12, 2016
p2981
sba(iarticle
Article
p2982
(dp2983
g3
g4
(S'\x07\xe0\x0c\x0c\x0e"\x00\x00\x00\x00'
p2984
tp2985
Rp2986
sg8
VWarning: this video is not for the squeamish.
p2987
sg10
VWatch a Doctor Perform Surgery With Snapchat Spectacles
p2988
sg12
Vhttp://pop.h-cdn.co/assets/16/50/1481571093-screen-shot-2016-12-12-at-11-56-51-am-1481561823.png
p2989
sg14
Nsg15
VHealth
p2990
sg17
g18
sg19
Vhttps://www.popularmechanics.com/science/health/a24263/surgery-with-snapchat-spectacles/
p2991
sg21
VDec 12, 2016
p2992
sba(iarticle
Article
p2993
(dp2994
g3
g4
(S'\x07\xe0\x0c\x0c\x0c\x0b\x00\x00\x00\x00'
p2995
tp2996
Rp2997
sg8
VInside our obsession with measuring wintry misery.
p2998
sg10
VThe Ridiculous History of Wind Chill
p2999
sg12
Vhttp://pop.h-cdn.co/assets/15/09/640x320/landscape_1424898749-cold_thermometer.jpg
p3000
sg14
F4.612588170075644
sg15
VEarth
p3001
sg17
g18
sg19
Vhttps://www.popularmechanics.com/science/environment/a14283/the-ridiculous-history-of-wind-chill/
p3002
sg21
VDec 12, 2016
p3003
sba(iarticle
Article
p3004
(dp3005
g3
g4
(S'\x07\xe0\x0c\x0c\x0b%\x00\x00\x00\x00'
p3006
tp3007
Rp3008
sg8
VRobert the Bruce also starred in Braveheart.
p3009
sg10
VThis Is the Face of Scotland's Most Legendary King
p3010
sg12
Vhttp://pop.h-cdn.co/assets/16/50/640x320/landscape-1481556471-screen-shot-2016-12-12-at-10.png
p3011
sg14
F3.6164713428255033
sg15
VArchaeology
p3012
sg17
g18
sg19
Vhttps://www.popularmechanics.com/science/archaeology/a24259/recreate-robert-the-bruce/
p3013
sg21
VDec 12, 2016
p3014
sba(iarticle
Article
p3015
(dp3016
g3
g4
(S'\x07\xe0\x0c\n\x0f7\x00\x00\x00\x00'
p3017
tp3018
Rp3019
sg8
VJust don't get it stuck in your carpet.
p3020
sg10
VAdding Graphene To Silly Putty Could Create A New Kind Of Heart Monitor
p3021
sg12
Vhttp://pop.h-cdn.co/assets/16/49/640x320/landscape-1481403240-putty.jpg
p3022
sg14
F0.6145045024025332
sg15
VHealth
p3023
sg17
g18
sg19
Vhttps://www.popularmechanics.com/science/health/a24248/graphene-silly-putty/
p3024
sg21
VDec 10, 2016
p3025
sba(iarticle
Article
p3026
(dp3027
g3
g4
(S'\x07\xe0\x0c\t\x0f\x1b\x00\x00\x00\x00'
p3028
tp3029
Rp3030
sg8
VPropane will go up in flames and don't you forget it.
p3031
sg10
VPassing Around a Fireball Is the Best Way to Spend Chemistry Class
p3032
sg12
Vhttp://pop.h-cdn.co/assets/16/49/640x319/gallery-1481314059-fireb.gif
p3033
sg14
F0.83295968304011
sg15
VEnergy
p3034
sg17
g18
sg19
Vhttps://www.popularmechanics.com/science/energy/a24240/fireball-passing-chem-class/
p3035
sg21
VDec 9, 2016
p3036
sba(iarticle
Article
p3037
(dp3038
g3
g4
(S'\x07\xe0\x0c\t\t,\x00\x00\x00\x00'
p3039
tp3040
Rp3041
sg8
VThis amber preserved bones, soft tissue, and even feathers.
p3042
sg10
VWe Just Found an Intact Dino Tail Encased in Amber
p3043
sg12
Vhttp://pop.h-cdn.co/assets/16/49/640x320/1481294309-landscape-1481238286-amber.jpg
p3044
sg14
F2.0193248827606993
sg15
VAnimals
p3045
sg17
g18
sg19
Vhttps://www.popularmechanics.com/science/animals/a24222/amber-dinosaur-tail/
p3046
sg21
VDec 9, 2016
p3047
sba(iarticle
Article
p3048
(dp3049
g3
g4
(S'\x07\xe0\x0c\x08\x0c1\x00\x00\x00\x00'
p3050
tp3051
Rp3052
sg8
VDifficulty level: Moderate
p3053
sg10
VRiddle of the Week #6: The Burning Rope Problem
p3054
sg12
Vhttp://pop.h-cdn.co/assets/16/50/640x320/landscape-1481815182-ropes1.jpg
p3055
sg14
F3.356199462676837
sg15
VMath
p3056
sg17
g18
sg19
Vhttps://www.popularmechanics.com/science/math/a24208/riddle-of-the-week-6/
p3057
sg21
VDec 8, 2016
p3058
sba(iarticle
Article
p3059
(dp3060
g3
g4
(S'\x07\xe0\x0c\x08\x0c0\x00\x00\x00\x00'
p3061
tp3062
Rp3063
sg8
VDifficulty level: Moderate
p3064
sg10
VSolution to Riddle of the Week #6: The Burning Rope Problem
p3065
sg12
Vhttp://pop.h-cdn.co/assets/16/50/640x320/landscape-1481815182-ropes1.jpg
p3066
sg14
Nsg15
VMath
p3067
sg17
g18
sg19
Vhttps://www.popularmechanics.com/science/math/a24210/solution-to-riddle-of-the-week-6/
p3068
sg21
VDec 8, 2016
p3069
sba(iarticle
Article
p3070
(dp3071
g3
g4
(S'\x07\xe0\x0c\x08\x0c\x1d\x00\x00\x00\x00'
p3072
tp3073
Rp3074
sg8
VA closer look at exactly how the popular desk toy operates.
p3075
sg10
VA Thermal Camera Reveals the Secret of the Drinking Bird Desk Toy
p3076
sg12
Vhttp://pop.h-cdn.co/assets/16/49/640x320/landscape-1481217258-bird.gif
p3077
sg14
F0.6711711323340944
sg15
VScience
p3078
sg17
g18
sg19
Vhttps://www.popularmechanics.com/science/a24211/thermal-camera-drinking-bird/
p3079
sg21
VDec 8, 2016
p3080
sba(iarticle
Article
p3081
(dp3082
g3
g4
(S'\x07\xe0\x0c\x08\t \x00\x00\x00\x00'
p3083
tp3084
Rp3085
sg8
VThe giraffe population has declined 40 percent in only three decades.
p3086
sg10
VOne of Earth's Most Unusual Animals Is Now Endangered
p3087
sg12
V//pop.h-cdn.co/assets/popularmechanics/20170411174720/images/blank.png
p3088
sg14
F0.7074073508650568
sg15
VAnimals
p3089
sg17
g18
sg19
Vhttps://www.popularmechanics.com/science/animals/a24205/giraffe-endangered-ap/
p3090
sg21
VDec 8, 2016
p3091
sba(iarticle
Article
p3092
(dp3093
g3
g4
(S'\x07\xe0\x0c\x07\x11 \x00\x00\x00\x00'
p3094
tp3095
Rp3096
sg8
VAll the bodies of water, from sea to shining sea.
p3097
sg10
VGorgeous Map Shows the United States as Only Bodies of Water
p3098
sg12
V//pop.h-cdn.co/assets/popularmechanics/20170411174720/images/blank.png
p3099
sg14
F7.332803798528161
sg15
VScience
p3100
sg17
g18
sg19
Vhttps://www.popularmechanics.com/science/a24199/gorgeous-map-united-states-bodies-of-water/
p3101
sg21
VDec 7, 2016
p3102
sba(iarticle
Article
p3103
(dp3104
g3
g4
(S'\x07\xe0\x0c\x07\x106\x00\x00\x00\x00'
p3105
tp3106
Rp3107
sg8
VThe Washington Generals will never win at the game of Newtonian physics, either.
p3108
sg10
VHarlem Globetrotters Sink 583-Foot Basket\u2014With Science!
p3109
sg12
V//pop.h-cdn.co/assets/popularmechanics/20170411174720/images/blank.png
p3110
sg14
F2.1627586169443753
sg15
VEarth
p3111
sg17
g18
sg19
Vhttps://www.popularmechanics.com/science/environment/a24197/harlem-globetrotters-science/
p3112
sg21
VDec 7, 2016
p3113
sba(iarticle
Article
p3114
(dp3115
g3
g4
(S'\x07\xe0\x0c\x07\x0f\n\x00\x00\x00\x00'
p3116
tp3117
Rp3118
sg8
VThe vast majority of human history occurred more than 2016 years ago.
p3119
sg10
VThe Case for Changing Our Calendars to 12,017 Next Year
p3120
sg12
V//pop.h-cdn.co/assets/popularmechanics/20170411174720/images/blank.png
p3121
sg14
F24.18076752056133
sg15
VArchaeology
p3122
sg17
g18
sg19
Vhttps://www.popularmechanics.com/science/archaeology/a24195/case-for-a-new-calendar-12017/
p3123
sg21
VDec 7, 2016
p3124
sba(iarticle
Article
p3125
(dp3126
g3
g4
(S'\x07\xe0\x0c\x07\x0c+\x00\x00\x00\x00'
p3127
tp3128
Rp3129
sg8
VA promising technology that injects hydrogen into existing gas pipelines could be the key to stabilizing renewable energy generation.
p3130
sg10
VHow Simple Hydrogen Could Solve Renewable Energy's Biggest Problem
p3131
sg12
V//pop.h-cdn.co/assets/popularmechanics/20170411174720/images/blank.png
p3132
sg14
F2.006235757955778
sg15
VEnergy
p3133
sg17
g18
sg19
Vhttps://www.popularmechanics.com/science/energy/a24190/mixing-hydrogen-with-natural-gas/
p3134
sg21
VDec 7, 2016
p3135
sba(iarticle
Article
p3136
(dp3137
g3
g4
(S'\x07\xe0\x0c\x07\t\x00\x00\x00\x00\x00'
p3138
tp3139
Rp3140
sg8
VFrom nerves to exercise, this is sweat's cool factor.
p3141
sg10
VThe Science of Sweat
p3142
sg12
Vhttp://pop.h-cdn.co/assets/16/46/640x320/landscape-1479503854-stocksy-comp-953012.jpg
p3143
sg14
F2.8889254387542818
sg15
VHealth
p3144
sg17
g18
sg19
Vhttps://www.popularmechanics.com/science/health/a23922/the-science-of-sweat/
p3145
sg21
VDec 7, 2016
p3146
sba(iarticle
Article
p3147
(dp3148
g3
g4
(S'\x07\xe0\x0c\x06\x12\n\x00\x00\x00\x00'
p3149
tp3150
Rp3151
sg8
VThe researchers sent the bird through a field of lasers to find out exactly how it flies.
p3152
sg10
VAdorable Bird Wears Goggles For Science
p3153
sg12
Vhttp://pop.h-cdn.co/assets/16/49/640x320/landscape-1481064779-bird.gif
p3154
sg14
F0.4514110767453605
sg15
VAnimals
p3155
sg17
g18
sg19
Vhttps://www.popularmechanics.com/science/animals/a24182/bird-goggles-science/
p3156
sg21
VDec 6, 2016
p3157
sba(iarticle
Article
p3158
(dp3159
g3
g4
(S'\x07\xe0\x0c\x06\x10"\x00\x00\x00\x00'
p3160
tp3161
Rp3162
sg8
VThe company aims to begin purchasing enough renewable energy to completely cover its energy usage.
p3163
sg10
VGoogle Plans to Run Entirely on Renewable Energy by 2017
p3164
sg12
Vhttp://pop.h-cdn.co/assets/16/49/640x320/landscape-1481058792-gettyimages-480630022.jpg
p3165
sg14
F1.943036832275866
sg15
VEnergy
p3166
sg17
g18
sg19
Vhttps://www.popularmechanics.com/science/energy/a24179/google-plans-100-percent-renewable/
p3167
sg21
VDec 6, 2016
p3168
sba(iarticle
Article
p3169
(dp3170
g3
g4
(S'\x07\xe0\x0c\x06\x0c#\x00\x00\x00\x00'
p3171
tp3172
Rp3173
sg8
VThe Wendelstein 7-X reactor, which uses a complex design called a stellerator, is performing just like it was predicted to.
p3174
sg10
VGermany's Wildly Complex Fusion Reactor Is Actually Working
p3175
sg12
Vhttp://pop.h-cdn.co/assets/16/49/640x320/landscape-1481048148-fusion-reactor.gif
p3176
sg14
F32.708305764443494
sg15
VEnergy
p3177
sg17
g18
sg19
Vhttps://www.popularmechanics.com/science/energy/a24172/fusion-reactor-working/
p3178
sg21
VDec 6, 2016
p3179
sba(iarticle
Article
p3180
(dp3181
g3
g4
(S'\x07\xe0\x0c\x06\t\x14\x00\x00\x00\x00'
p3182
tp3183
Rp3184
sg8
VThe birdlike kites even have wings that flap.
p3185
sg10
VWhy Scientists Are Using Kites to Terrify Fish
p3186
sg12
Vhttp://pop.h-cdn.co/assets/16/49/640x320/landscape-1480975956-gettyimages-538541138.jpg
p3187
sg14
F0.26867051210862064
sg15
VAnimals
p3188
sg17
g18
sg19
Vhttps://www.popularmechanics.com/science/animals/advice/a24163/scientists-bird-kites-experiment/
p3189
sg21
VDec 6, 2016
p3190
sba(iarticle
Article
p3191
(dp3192
g3
g4
(S'\x07\xe0\x0c\x06\t\x00\x00\x00\x00\x00'
p3193
tp3194
Rp3195
sg8
VThe secret behind the miracle coating.
p3196
sg10
VHow Truck Bedliner Spray Makes Everything Indestructible
p3197
sg12
Vhttp://pop.h-cdn.co/assets/16/35/1472669270-watermelon.gif
p3198
sg14
F2.141886717487176
sg15
VScience
p3199
sg17
g18
sg19
Vhttps://www.popularmechanics.com/science/a24164/how-line-x-makes-everything-indestructible/
p3200
sg21
VDec 6, 2016
p3201
sba(iarticle
Article
p3202
(dp3203
g3
g4
(S'\x07\xe0\x0c\x05\x11\x13\x00\x00\x00\x00'
p3204
tp3205
Rp3206
sg8
VIt can be done! With calculus, anything is possible.
p3207
sg10
VThe Secret Magic of Dividing by Zero
p3208
sg12
Vhttp://pop.h-cdn.co/assets/16/49/640x320/landscape-1480974000-math-1.jpg
p3209
sg14
F23.846943970471006
sg15
VMath
p3210
sg17
g18
sg19
Vhttps://www.popularmechanics.com/science/math/a24162/dividing-by-zero-explainer/
p3211
sg21
VDec 5, 2016
p3212
sba(iarticle
Article
p3213
(dp3214
g3
g4
(S'\x07\xe0\x0c\x05\x0e\x1f\x00\x00\x00\x00'
p3215
tp3216
Rp3217
sg8
VWhy shouldn't scientists get the Oscar treatment?
p3218
sg10
VMeet the Scientists Who Just Shared $25 Million in Prize Money for Their Discoveries
p3219
sg12
Vhttp://pop.h-cdn.co/assets/16/49/1480965423-web-gettyimages-627783978.jpg
p3220
sg14
F0.3321319345306317
sg15
VScience
p3221
sg17
g18
sg19
Vhttps://www.popularmechanics.com/science/a24157/breakthrough-prize-2016/
p3222
sg21
VDec 5, 2016
p3223
sba(iarticle
Article
p3224
(dp3225
g3
g4
(S'\x07\xe0\x0c\x05\t\x0e\x00\x00\x00\x00'
p3226
tp3227
Rp3228
sg8
VOne turbine isn't turning, but production should start soon regardless.
p3229
sg10
VThe First U.S. Offshore WindFarm Is Almost Ready for Action
p3230
sg12
Vhttp://pop.h-cdn.co/assets/16/49/640x320/landscape-1480947135-gettyimages-609854836.jpg
p3231
sg14
F0.713671333225257
sg15
VGreen Tech
p3232
sg17
g18
sg19
Vhttps://www.popularmechanics.com/science/green-tech/a24144/us-offshore-wind-farm-ready/
p3233
sg21
VDec 5, 2016
p3234
sba(iarticle
Article
p3235
(dp3236
g3
g4
(S'\x07\xe0\x0c\x02\x0e\x0e\x00\x00\x00\x00'
p3237
tp3238
Rp3239
sg8
VOk, it's more like a base that ties the other laws together.
p3240
sg10
VDid You Know There Is A Zeroth Law Of Thermodynamics?
p3241
sg12
Vhttp://pop.h-cdn.co/assets/16/48/640x320/landscape-1480704904-thermo.jpg
p3242
sg14
Nsg15
VScience
p3243
sg17
g18
sg19
Vhttps://www.popularmechanics.com/science/a24134/zeroth-law-of-thermodynamics/
p3244
sg21
VDec 2, 2016
p3245
sba(iarticle
Article
p3246
(dp3247
g3
g4
(S'\x07\xe0\x0c\x02\x0c\x01\x00\x00\x00\x00'
p3248
tp3249
Rp3250
sg8
VWho knew chemistry was so beautiful?
p3251
sg10
VGorgeous Chemical Reactions Will Make You Miss Science Class
p3252
sg12
V//pop.h-cdn.co/assets/popularmechanics/20170411174720/images/blank.png
p3253
sg14
F0.2824792029182325
sg15
VScience
p3254
sg17
g18
sg19
Vhttps://www.popularmechanics.com/science/a24128/chemical-reactions/
p3255
sg21
VDec 2, 2016
p3256
sba(iarticle
Article
p3257
(dp3258
g3
g4
(S'\x07\xe0\x0c\x02\x0b\x07\x00\x00\x00\x00'
p3259
tp3260
Rp3261
sg8
VHow many black dots do you see?
p3262
sg10
VThese Illusions Prove That Your Brain Only Sees What It Wants To See
p3263
sg12
V//pop.h-cdn.co/assets/popularmechanics/20170411174720/images/blank.png
p3264
sg14
F4.490230204541367
sg15
VScience
p3265
sg17
g18
sg19
Vhttps://www.popularmechanics.com/science/a24125/optical-illusions-brain/
p3266
sg21
VDec 2, 2016
p3267
sba(iarticle
Article
p3268
(dp3269
g3
g4
(S'\x07\xe0\x0c\x01\x0f2\x00\x00\x00\x00'
p3270
tp3271
Rp3272
sg8
VLuckily, everyone got out okay.
p3273
sg10
VWhat It Looks Like to Drive Right Through the Terrifying Tennessee Fires
p3274
sg12
V//pop.h-cdn.co/assets/popularmechanics/20170411174720/images/blank.png
p3275
sg14
Nsg15
VEarth
p3276
sg17
g18
sg19
Vhttps://www.popularmechanics.com/science/environment/a24115/video-tennessee-fires/
p3277
sg21
VDec 1, 2016
p3278
sba(iarticle
Article
p3279
(dp3280
g3
g4
(S'\x07\xe0\x0c\x01\x0c1\x00\x00\x00\x00'
p3281
tp3282
Rp3283
sg8
VThe map, which was found rotting in a chimney, was painstakingly restored over several months.
p3284
sg10
VHow a Terribly Decayed 300-Year-Old Map Is Painstakingly Restored
p3285
sg12
V//pop.h-cdn.co/assets/popularmechanics/20170411174720/images/blank.png
p3286
sg14
F0.34369079064387553
sg15
VScience
p3287
sg17
g18
sg19
Vhttps://www.popularmechanics.com/science/a24106/restoring-old-map/
p3288
sg21
VDec 1, 2016
p3289
sba(iarticle
Article
p3290
(dp3291
g3
g4
(S'\x07\xe0\x0c\x01\x0b \x00\x00\x00\x00'
p3292
tp3293
Rp3294
sg8
VDifficulty level: Moderate
p3295
sg10
VSolution to Riddle of the Week #5: A Life-or-Death Question About Hats
p3296
sg12
V//pop.h-cdn.co/assets/popularmechanics/20170411174720/images/blank.png
p3297
sg14
Nsg15
VMath
p3298
sg17
g18
sg19
Vhttps://www.popularmechanics.com/science/math/a24101/solution-to-riddle-of-the-week-5/
p3299
sg21
VDec 1, 2016
p3300
sba(iarticle
Article
p3301
(dp3302
g3
g4
(S'\x07\xe0\x0c\x01\x0b \x00\x00\x00\x00'
p3303
tp3304
Rp3305
sg8
VDifficulty level: Moderate
p3306
sg10
VRiddle of the Week #5: A Life-or-Death Question About Hats
p3307
sg12
Vhttp://pop.h-cdn.co/assets/16/50/640x320/landscape-1481815546-hats.jpg
p3308
sg14
F0.9465481869228168
sg15
VMath
p3309
sg17
g18
sg19
Vhttps://www.popularmechanics.com/science/math/a24100/riddle-of-the-week-5/
p3310
sg21
VDec 1, 2016
p3311
sba(iarticle
Article
p3312
(dp3313
g3
g4
(S'\x07\xe0\x0b\x1e\x11\x08\x00\x00\x00\x00'
p3314
tp3315
Rp3316
sg8
VA lot of scientific thought went into developing the United States' stubbornly-held temperature system.
p3317
sg10
VWhy Fahrenheit Actually Makes Sense
p3318
sg12
Vhttp://pop.h-cdn.co/assets/16/48/640x320/landscape-1480540352-gettyimages-90737083.jpg
p3319
sg14
F20.92193913120195
sg15
VScience
p3320
sg17
g18
sg19
Vhttps://www.popularmechanics.com/science/a24093/fahrenheit-is-not-an-arbitrary-scale/
p3321
sg21
VNov 30, 2016
p3322
sba(iarticle
Article
p3323
(dp3324
g3
g4
(S'\x07\xe0\x0b\x1e\x0e\t\x00\x00\x00\x00'
p3325
tp3326
Rp3327
sg8
VElements 113, 115, 117, and 118 now have official names and are included in the periodic table.
p3328
sg10
VThe Periodic Table Officially Has 4 New Members
p3329
sg12
Vhttp://pop.h-cdn.co/assets/16/23/640x320/landscape-1465407856-gettyimages-90337992.jpg
p3330
sg14
F4.682455124334568
sg15
VScience
p3331
sg17
g18
sg19
Vhttps://www.popularmechanics.com/science/a24087/four-newest-elements-official/
p3332
sg21
VNov 30, 2016
p3333
sba(iarticle
Article
p3334
(dp3335
g3
g4
(S'\x07\xe0\x0b\x1e\x0c&\x00\x00\x00\x00'
p3336
tp3337
Rp3338
sg8
VNeglected tropical diseases used to causes hundreds of thousands of deaths a year. But not anymore, thanks to the efforts of several...
p3339
sg10
VHow The World Is Fighting Back Against These Little-Known Killer Diseases
p3340
sg12
Vhttp://pop.h-cdn.co/assets/16/48/640x320/landscape-1480525885-gettyimages-87745360.jpg
p3341
sg14
Nsg15
VHealth
p3342
sg17
g18
sg19
Vhttps://www.popularmechanics.com/science/health/a24083/neglected-tropical-diseases-london-declaration/
p3343
sg21
VNov 30, 2016
p3344
sba(iarticle
Article
p3345
(dp3346
g3
g4
(S'\x07\xe0\x0b\x1d\x115\x00\x00\x00\x00'
p3347
tp3348
Rp3349
sg8
VHow to produce the loudest sound possible.
p3350
sg10
VHere's the Scientifically Best Way to Cheer
p3351
sg12
Vhttp://pop.h-cdn.co/assets/16/48/640x320/landscape-1480459127-gettyimages-591404823.jpg
p3352
sg14
F0.22859691985854763
sg15
VScience
p3353
sg17
g18
sg19
Vhttps://www.popularmechanics.com/science/a24075/scientifically-best-way-to-cheer/
p3354
sg21
VNov 29, 2016
p3355
sba(iarticle
Article
p3356
(dp3357
g3
g4
(S'\x07\xe0\x0b\x1d\x11\x0c\x00\x00\x00\x00'
p3358
tp3359
Rp3360
sg8
VThe new beetle species is 14 to 20 million years old.
p3361
sg10
VAncient Frozen Beetle Is the First Ever Found in Antarctica
p3362
sg12
Vhttp://pop.h-cdn.co/assets/16/48/640x320/landscape-1480451694-zf1lixcqluocfmw4vzlj.gif
p3363
sg14
F2.3062958609687847
sg15
VAnimals
p3364
sg17
g18
sg19
Vhttps://www.popularmechanics.com/science/animals/a24072/ancient-frozen-beetle-found-in-antarctica/
p3365
sg21
VNov 29, 2016
p3366
sba(iarticle
Article
p3367
(dp3368
g3
g4
(S'\x07\xe0\x0b\x1d\x10\x0c\x00\x00\x00\x00'
p3369
tp3370
Rp3371
sg8
VOur lifestyle, and our invention of agriculture, produced one of the deadliest infectious diseases in history.
p3372
sg10
VHumans Are the Reason Malaria Is So Deadly
p3373
sg12
Vhttp://pop.h-cdn.co/assets/15/31/640x320/landscape-1438365173-mosquito-web.jpg
p3374
sg14
F1.0108770414536998
sg15
VHealth
p3375
sg17
g18
sg19
Vhttps://www.popularmechanics.com/science/health/a24069/humans-are-the-reason-malaria-is-so-deadly/
p3376
sg21
VNov 29, 2016
p3377
sba(iarticle
Article
p3378
(dp3379
g3
g4
(S'\x07\xe0\x0b\x1d\x0b-\x00\x00\x00\x00'
p3380
tp3381
Rp3382
sg8
VThe new plant generates 648 MW and can power 150,000 homes.
p3383
sg10
VThe World's Largest Solar Plant Is Now Online
p3384
sg12
Vhttp://pop.h-cdn.co/assets/16/48/1480438524-screen-shot-2016-11-29-at-115106-am.png
p3385
sg14
F30.425727283008005
sg15
VGreen Tech
p3386
sg17
g18
sg19
Vhttps://www.popularmechanics.com/science/green-tech/a24063/worlds-largest-solar-plant-india/
p3387
sg21
VNov 29, 2016
p3388
sba(iarticle
Article
p3389
(dp3390
g3
g4
(S'\x07\xe0\x0b\x1c\x11\x17\x00\x00\x00\x00'
p3391
tp3392
Rp3393
sg8
VThe new facility will build tissues like bones and cartilage for surgery patients as a first step toward printers in every operating room.
p3394
sg10
VHospital Will Open First Dedicated 3D Bioprinting Facility
p3395
sg12
Vhttp://pop.h-cdn.co/assets/16/48/1480369502-3d-tissue-printing.jpg
p3396
sg14
F2.2424033356450206
sg15
VHealth
p3397
sg17
g18
sg19
Vhttps://www.popularmechanics.com/science/health/a24057/hospital-bioprinting-facility/
p3398
sg21
VNov 28, 2016
p3399
sba(iarticle
Article
p3400
(dp3401
g3
g4
(S'\x07\xe0\x0b\x1c\x11\x00\x00\x00\x00\x00'
p3402
tp3403
Rp3404
sg8
VThe city looked like a winter wonderland.
p3405
sg10
VUnbelievable Photos of Tokyo's First November Snowfall in 54 Years
p3406
sg12
Vhttp://pop.h-cdn.co/assets/16/48/640x320/landscape-1480360554-gettyimages-625449266.jpg
p3407
sg14
F1.3480453128033656
sg15
VEarth
p3408
sg17
g18
sg19
Vhttps://www.popularmechanics.com/science/environment/a24049/tokyo-snow-photos/
p3409
sg21
VNov 28, 2016
p3410
sba(iarticle
Article
p3411
(dp3412
g3
g4
(S'\x07\xe0\x0b\x1c\x0e)\x00\x00\x00\x00'
p3413
tp3414
Rp3415
sg8
VThe diamonds are made from radioactive graphite and can generate a small electric current for thousands of years.
p3416
sg10
VScientists Turn Nuclear Waste Into Long-Lived Diamond Batteries
p3417
sg12
V//pop.h-cdn.co/assets/popularmechanics/20170411174720/images/blank.png
p3418
sg14
F29.554842123191477
sg15
VEnergy
p3419
sg17
g18
sg19
Vhttps://www.popularmechanics.com/science/energy/a24050/nuclear-waste-diamond-batteries/
p3420
sg21
VNov 28, 2016
p3421
sba(iarticle
Article
p3422
(dp3423
g3
g4
(S'\x07\xe0\x0b\x1c\r;\x00\x00\x00\x00'
p3424
tp3425
Rp3426
sg8
VCan liquid hot metal defeat the ultra-dense ball?
p3427
sg10
VWhat Molten Copper Does to a Rubber Band Ball
p3428
sg12
V//pop.h-cdn.co/assets/popularmechanics/20170411174720/images/blank.png
p3429
sg14
F0.2130270867472162
sg15
VScience
p3430
sg17
g18
sg19
Vhttps://www.popularmechanics.com/science/a24045/molten-copper-rubber-band-ball/
p3431
sg21
VNov 28, 2016
p3432
sba(iarticle
Article
p3433
(dp3434
g3
g4
(S'\x07\xe0\x0b\x1c\x0b\x00\x00\x00\x00\x00'
p3435
tp3436
Rp3437
sg8
VThe new clock will result in smaller, more portable atomic clocks that scientists around the world could use in their experiments.
p3438
sg10
VHere Is the World's Most Stable Atomic Clock
p3439
sg12
V//pop.h-cdn.co/assets/popularmechanics/20170411174720/images/blank.png
p3440
sg14
F0.9475047618805432
sg15
VScience
p3441
sg17
g18
sg19
Vhttps://www.popularmechanics.com/science/a24022/most-stable-atomic-clock/
p3442
sg21
VNov 28, 2016
p3443
sba(iarticle
Article
p3444
(dp3445
g3
g4
(S'\x07\xe0\x0b\x17\r\x05\x00\x00\x00\x00'
p3446
tp3447
Rp3448
sg8
VThe generator harnesses the power of the tides in the Bay of Fundy, and produces enough electricity to power 500 homes.
p3449
sg10
VThe First Tidal Generator in North America Is Now Online
p3450
sg12
V//pop.h-cdn.co/assets/popularmechanics/20170411174720/images/blank.png
p3451
sg14
F27.896059197331795
sg15
VGreen Tech
p3452
sg17
g18
sg19
Vhttps://www.popularmechanics.com/science/green-tech/a24027/first-tidal-generator-north-america-online/
p3453
sg21
VNov 23, 2016
p3454
sba(iarticle
Article
p3455
(dp3456
g3
g4
(S'\x07\xe0\x0b\x16\x0f,\x00\x00\x00\x00'
p3457
tp3458
Rp3459
sg8
VA dirty energy plant inadvertently created a marine life sanctuary, but what happens when it disappears?
p3460
sg10
VThe Future of the Florida Manatee Depends on a Decades-Old Coal Plant
p3461
sg12
V//pop.h-cdn.co/assets/popularmechanics/20170411174720/images/blank.png
p3462
sg14
F2.601544697733285
sg15
VAnimals
p3463
sg17
g18
sg19
Vhttps://www.popularmechanics.com/science/animals/a24007/florida-manatee-coal-plant/
p3464
sg21
VNov 22, 2016
p3465
sba(iarticle
Article
p3466
(dp3467
g3
g4
(S'\x07\xe0\x0b\x16\r \x00\x00\x00\x00'
p3468
tp3469
Rp3470
sg8
VThe trick is crystals.
p3471
sg10
VHere's How Hand Warmers Work
p3472
sg12
Vhttp://pop.h-cdn.co/assets/16/47/640x320/landscape-1479838481-screen-shot-2016-11-22-at-101417-am.png
p3473
sg14
Nsg15
VScience
p3474
sg17
g18
sg19
Vhttps://www.popularmechanics.com/science/a24006/how-hand-warmers-work/
p3475
sg21
VNov 22, 2016
p3476
sba(iarticle
Article
p3477
(dp3478
g3
g4
(S'\x07\xe0\x0b\x15\x100\x00\x00\x00\x00'
p3479
tp3480
Rp3481
sg8
VDespite the Tsunami warning, the earthquake magnitude is less than the 2011 Fukushima disaster.
p3482
sg10
VA 7.3-Magnitude Earthquake Strikes Japan Off the Coast of Fukushima
p3483
sg12
Vhttp://pop.h-cdn.co/assets/16/47/640x320/landscape-1479764776-screen-shot-2016-11-21-at-44252-pm.png
p3484
sg14
F0.3215137880097441
sg15
VEnergy
p3485
sg17
g18
sg19
Vhttps://www.popularmechanics.com/science/energy/a23992/a-73-magnitude-earthquake-strikes-japan-off-the-coast-of-fukushima/
p3486
sg21
VNov 21, 2016
p3487
sba(iarticle
Article
p3488
(dp3489
g3
g4
(S'\x07\xe0\x0b\x15\x10!\x00\x00\x00\x00'
p3490
tp3491
Rp3492
sg8
VAfter last week's earthquake in New Zealand, scientists are studying the chasm that follows the fault line.
p3493
sg10
VDrone Follows a Fissure That an Earthquake Ripped Open
p3494
sg12
Vhttp://pop.h-cdn.co/assets/16/47/640x320/landscape-1479763476-screen-shot-2016-11-21-at-42418-pm.png
p3495
sg14
F1.1875513958991417
sg15
VEarth
p3496
sg17
g18
sg19
Vhttps://www.popularmechanics.com/science/environment/a23991/drone-footage-fissure-new-zealand-earthquake/
p3497
sg21
VNov 21, 2016
p3498
sba(iarticle
Article
p3499
(dp3500
g3
g4
(S'\x07\xe0\x0b\x15\x0c\x07\x00\x00\x00\x00'
p3501
tp3502
Rp3503
sg8
VTwo Chinese companies have put forth a plan to build a 1 gigawatt solar farm in the area around the abandoned reactor.
p3504
sg10
VChernobyl Is Going to Become a Solar Farm
p3505
sg12
Vhttp://pop.h-cdn.co/assets/16/23/640x320/landscape-1465327031-9092131449-a5cb8989e7-b.jpg
p3506
sg14
F13.761541996556732
sg15
VGreen Tech
p3507
sg17
g18
sg19
Vhttps://www.popularmechanics.com/science/green-tech/a23979/solar-farm-chernobyl/
p3508
sg21
VNov 21, 2016
p3509
sba(iarticle
Article
p3510
(dp3511
g3
g4
(S'\x07\xe0\x0b\x14\x0f\x1c\x00\x00\x00\x00'
p3512
tp3513
Rp3514
sg8
VBoom.
p3515
sg10
VHere's Why You Shouldn't Flush Sodium Metal Down The Toilet
p3516
sg12
Vhttp://pop.h-cdn.co/assets/16/46/480x240/landscape-1479673427-toilet.gif
p3517
sg14
F3.303801240358464
sg15
VScience
p3518
sg17
g18
sg19
Vhttps://www.popularmechanics.com/science/a23977/sodium-metal-toilet/
p3519
sg21
VNov 20, 2016
p3520
sba(iarticle
Article
p3521
(dp3522
g3
g4
(S'\x07\xe0\x0b\x13\x0f\x0c\x00\x00\x00\x00'
p3523
tp3524
Rp3525
sg8
VAn unmanned Atlas rocket is scheduled to blast off from Cape Canaveral, Florida, at 5:42 p.m. Saturday.
p3526
sg10
VAmerica's Most Advanced Weather Satellite Ever Launches Tonight
p3527
sg12
Vhttp://pop.h-cdn.co/assets/16/46/640x320/landscape-1479586263-goesr.jpg
p3528
sg14
F2.7707518857892044
sg15
VScience
p3529
sg17
g18
sg19
Vhttps://www.popularmechanics.com/science/a23974/weather-satellite/
p3530
sg21
VNov 19, 2016
p3531
sba(iarticle
Article
p3532
(dp3533
g3
g4
(S'\x07\xe0\x0b\x12\x10(\x00\x00\x00\x00'
p3534
tp3535
Rp3536
sg8
VA British renewable energy company plans to use grass from abandoned fields and meadows as a fuel source.
p3537
sg10
VGrass Clippings Could Someday Heat Your Home
p3538
sg12
Vhttp://pop.h-cdn.co/assets/16/46/640x320/landscape-1479502968-gettyimages-592364499.jpg
p3539
sg14
F0.4954649038618007
sg15
VGreen Tech
p3540
sg17
g18
sg19
Vhttps://www.popularmechanics.com/science/green-tech/a23967/ecotricity-grass-energy/
p3541
sg21
VNov 18, 2016
p3542
sba(iarticle
Article
p3543
(dp3544
g3
g4
(S'\x07\xe0\x0b\x12\x0b8\x00\x00\x00\x00'
p3545
tp3546
Rp3547
sg8
VJust imagine the view from that lighthouse.
p3548
sg10
VWatch These Unbelievably Huge Waves Slam Taiwan
p3549
sg12
V//pop.h-cdn.co/assets/popularmechanics/20170411174720/images/blank.png
p3550
sg14
F1.2467320107086735
sg15
VEarth
p3551
sg17
g18
sg19
Vhttps://www.popularmechanics.com/science/environment/a23957/typhoon-megi-taiwan-video/
p3552
sg21
VNov 18, 2016
p3553
sba(iarticle
Article
p3554
(dp3555
g3
g4
(S'\x07\xe0\x0b\x12\x0b%\x00\x00\x00\x00'
p3556
tp3557
Rp3558
sg8
VIn addition, they will be more durable, last longer, and of course, generate electricity.
p3559
sg10
VElon Musk Says His Solar Shingles Will Cost Less than a Normal Roof
p3560
sg12
V//pop.h-cdn.co/assets/popularmechanics/20170411174720/images/blank.png
p3561
sg14
F13.494408455305981
sg15
VGreen Tech
p3562
sg17
g18
sg19
Vhttps://www.popularmechanics.com/science/green-tech/a23953/tesla-solar-shingles-cheaper/
p3563
sg21
VNov 18, 2016
p3564
sba(iarticle
Article
p3565
(dp3566
g3
g4
(S'\x07\xe0\x0b\x12\n\n\x00\x00\x00\x00'
p3567
tp3568
Rp3569
sg8
VWhy neurological chips in humans are a long way off\u2014if ever.
p3570
sg10
VImplants Can Overcome Spinal Injury in Monkeys. Are Humans Next?
p3571
sg12
Vhttp://pop.h-cdn.co/assets/16/46/640x320/landscape-1479396971-img-8641-dxo.jpg
p3572
sg14
F0.9699356669709115
sg15
VAnimals
p3573
sg17
g18
sg19
Vhttps://www.popularmechanics.com/science/animals/a23934/brain-spine-monkey/
p3574
sg21
VNov 18, 2016
p3575
sba(iarticle
Article
p3576
(dp3577
g3
g4
(S'\x07\xe0\x0b\x11\x12\x0e\x00\x00\x00\x00'
p3578
tp3579
Rp3580
sg8
VThousands of years old, the Temple of Kukulcan still has a few tricks up its sleeve.
p3581
sg10
VHidden Structure Discovered Within Famous Mayan Temple
p3582
sg12
V//pop.h-cdn.co/assets/popularmechanics/20170411174720/images/blank.png
p3583
sg14
F1.989199260387193
sg15
VScience
p3584
sg17
g18
sg19
Vhttps://www.popularmechanics.com/science/a23946/hidden-structure-temple-kukulcan-chichen-itza/
p3585
sg21
VNov 17, 2016
p3586
sba(iarticle
Article
p3587
(dp3588
g3
g4
(S'\x07\xe0\x0b\x11\x0e\x00\x00\x00\x00\x00'
p3589
tp3590
Rp3591
sg8
VA new method for fixing carbon dioxide.
p3592
sg10
VNew Way of Transforming CO2 Is More Efficient Than What Plants Do
p3593
sg12
V//pop.h-cdn.co/assets/popularmechanics/20170411174720/images/blank.png
p3594
sg14
F30.02797597554873
sg15
VEnergy
p3595
sg17
g18
sg19
Vhttps://www.popularmechanics.com/science/energy/a23938/fix-carbon-dioxide-useful-products/
p3596
sg21
VNov 17, 2016
p3597
sba(iarticle
Article
p3598
(dp3599
g3
g4
(S'\x07\xe0\x0b\x11\x0b\x14\x00\x00\x00\x00'
p3600
tp3601
Rp3602
sg8
VDozens of wildfires burn across the Appalachians.
p3603
sg10
VRelentless Smoke Spreads Fear at Edge of Southern Wildfires
p3604
sg12
V//pop.h-cdn.co/assets/popularmechanics/20170411174720/images/blank.png
p3605
sg14
Nsg15
VEarth
p3606
sg17
g18
sg19
Vhttps://www.popularmechanics.com/science/environment/news/a23935/relentless-smoke-spreads-fear-at-edge-of-southern-wildfires/
p3607
sg21
VNov 17, 2016
p3608
sba(iarticle
Article
p3609
(dp3610
g3
g4
(S'\x07\xe0\x0b\x10\x0f\x12\x00\x00\x00\x00'
p3611
tp3612
Rp3613
sg8
VIt's so elusive, scientists have only managed to find two.
p3614
sg10
VNewly Discovered Spider Looks Suspiciously Like a Leaf
p3615
sg12
V//pop.h-cdn.co/assets/popularmechanics/20170411174720/images/blank.png
p3616
sg14
F2.946657759228537
sg15
VAnimals
p3617
sg17
g18
sg19
Vhttps://www.popularmechanics.com/science/animals/a23923/newly-discovered-spider-looks-just-like-a-leaf/
p3618
sg21
VNov 16, 2016
p3619
sba(iarticle
Article
p3620
(dp3621
g3
g4
(S'\x07\xe0\x0b\x10\x0c\x07\x00\x00\x00\x00'
p3622
tp3623
Rp3624
sg8
VWe should be seeing a lot more of the white stuff this time of year.
p3625
sg10
VThere's a Scary-Low Amount of Snow in the U.S. Right Now
p3626
sg12
V//pop.h-cdn.co/assets/popularmechanics/20170411174720/images/blank.png
p3627
sg14
F5.793177414956734
sg15
VEarth
p3628
sg17
g18
sg19
Vhttps://www.popularmechanics.com/science/environment/a23913/us-low-snow-cover/
p3629
sg21
VNov 16, 2016
p3630
sba(iarticle
Article
p3631
(dp3632
g3
g4
(S'\x07\xe0\x0b\x0f\x0e/\x00\x00\x00\x00'
p3633
tp3634
Rp3635
sg8
VThe new material could allow power plants to recycle their waste heat and improve their efficiency.
p3636
sg10
VScientists Discover New Process To Turn Waste Heat Into Electricity
p3637
sg12
V//pop.h-cdn.co/assets/popularmechanics/20170411174720/images/blank.png
p3638
sg14
F3.1043346600825554
sg15
VGreen Tech
p3639
sg17
g18
sg19
Vhttps://www.popularmechanics.com/science/green-tech/a23900/material-waste-heat-electricity/
p3640
sg21
VNov 15, 2016
p3641
sba(iarticle
Article
p3642
(dp3643
g3
g4
(S'\x07\xe0\x0b\x0f\x0e\r\x00\x00\x00\x00'
p3644
tp3645
Rp3646
sg8
VChinese scientists are attempting to use CRISPR to develop a new treatment for cancer patients, and the U.S. will soon follow their lead.
p3647
sg10
VChinese Scientists Become First to Use CRISPR Gene-Editing on Humans
p3648
sg12
V//pop.h-cdn.co/assets/popularmechanics/20170411174720/images/blank.png
p3649
sg14
F11.98649854122648
sg15
VHealth
p3650
sg17
g18
sg19
Vhttps://www.popularmechanics.com/science/health/a23898/crispr-gene-editing-tool-used-on-a-human/
p3651
sg21
VNov 15, 2016
p3652
sba(iarticle
Article
p3653
(dp3654
g3
g4
(S'\x07\xe0\x0b\x0f\t\x1d\x00\x00\x00\x00'
p3655
tp3656
Rp3657
sg8
VTheir predicament captured the world's attention yesterday.
p3658
sg10
VThose New Zealand Cows Standed by an Earthquake Have Been Rescued
p3659
sg12
V//pop.h-cdn.co/assets/popularmechanics/20170411174720/images/blank.png
p3660
sg14
F1.7327320597509606
sg15
VAnimals
p3661
sg17
g18
sg19
Vhttps://www.popularmechanics.com/science/animals/a23891/new-zealand-cows-rescued/
p3662
sg21
VNov 15, 2016
p3663
sba(iarticle
Article
p3664
(dp3665
g3
g4
(S'\x07\xe0\x0b\x0e\x0f\x07\x00\x00\x00\x00'
p3666
tp3667
Rp3668
sg8
VA new study projects that worldwide carbon emissions have not risen since 2014, which is good news for those worried about climate change.
p3669
sg10
VCarbon Emissions Remained Flat for a Third Year in a Row
p3670
sg12
V//pop.h-cdn.co/assets/popularmechanics/20170411174720/images/blank.png
p3671
sg14
F1.0032972219393756
sg15
VEarth
p3672
sg17
g18
sg19
Vhttps://www.popularmechanics.com/science/environment/a23880/emissions-flat-three-years/
p3673
sg21
VNov 14, 2016
p3674
sba(iarticle
Article
p3675
(dp3676
g3
g4
(S'\x07\xe0\x0b\x0e\x0e\x18\x00\x00\x00\x00'
p3677
tp3678
Rp3679
sg8
VNot all of those dates are created equal.
p3680
sg10
VDo the Expiration Dates on Your Shampoo and Deodorant Really Matter?
p3681
sg12
V//pop.h-cdn.co/assets/popularmechanics/20170411174720/images/blank.png
p3682
sg14
Nsg15
VHealth
p3683
sg17
g18
sg19
Vhttps://www.popularmechanics.com/science/health/a23878/expiration-date-shampoo-deodorant/
p3684
sg21
VNov 14, 2016
p3685
sba.